
AVRASM ver. 2.1.30  D:\projetos\camera\codevision_cam_sd\Debug\List\camera.asm Wed Dec 17 16:45:22 2014

D:\projetos\camera\codevision_cam_sd\Debug\List\camera.asm(1090): warning: Register r5 already defined by the .DEF directive
D:\projetos\camera\codevision_cam_sd\Debug\List\camera.asm(1091): warning: Register r6 already defined by the .DEF directive
D:\projetos\camera\codevision_cam_sd\Debug\List\camera.asm(1092): warning: Register r7 already defined by the .DEF directive
D:\projetos\camera\codevision_cam_sd\Debug\List\camera.asm(1093): warning: Register r4 already defined by the .DEF directive
D:\projetos\camera\codevision_cam_sd\Debug\List\camera.asm(1094): warning: Register r9 already defined by the .DEF directive
D:\projetos\camera\codevision_cam_sd\Debug\List\camera.asm(1095): warning: Register r8 already defined by the .DEF directive
                 
                 
                 ;CodeVisionAVR C Compiler V3.10 Advanced
                 ;(C) Copyright 1998-2014 Pavel Haiduc, HP InfoTech s.r.l.
                 ;http://www.hpinfotech.com
                 
                 ;Build configuration    : Debug
                 ;Chip type              : ATmega128
                 ;Program type           : Application
                 ;Clock frequency        : 8,000000 MHz
                 ;Memory model           : Small
                 ;Optimize for           : Size
                 ;(s)printf features     : int, width
                 ;(s)scanf features      : int, width
                 ;External RAM size      : 0
                 ;Data Stack size        : 1024 byte(s)
                 ;Heap size              : 0 byte(s)
                 ;Promote 'char' to 'int': Yes
                 ;'char' is unsigned     : Yes
                 ;8 bit enums            : Yes
                 ;Global 'const' stored in FLASH: Yes
                 ;Enhanced function parameter passing: Yes
                 ;Enhanced core instructions: On
                 ;Automatic register allocation for global variables: On
                 ;Smart register allocation: On
                 
                 	#define _MODEL_SMALL_
                 
                 	#pragma AVRPART ADMIN PART_NAME ATmega128
                 	#pragma AVRPART MEMORY PROG_FLASH 131072
                 	#pragma AVRPART MEMORY EEPROM 4096
                 	#pragma AVRPART MEMORY INT_SRAM SIZE 4096
                 	#pragma AVRPART MEMORY INT_SRAM START_ADDR 0x100
                 
                 	#define CALL_SUPPORTED 1
                 
                 	.LISTMAC
                 	.EQU UDRE=0x5
                 	.EQU RXC=0x7
                 	.EQU USR=0xB
                 	.EQU UDR=0xC
                 	.EQU SPSR=0xE
                 	.EQU SPDR=0xF
                 	.EQU EERE=0x0
                 	.EQU EEWE=0x1
                 	.EQU EEMWE=0x2
                 	.EQU EECR=0x1C
                 	.EQU EEDR=0x1D
                 	.EQU EEARL=0x1E
                 	.EQU EEARH=0x1F
                 	.EQU WDTCR=0x21
                 	.EQU MCUCR=0x35
                 	.EQU RAMPZ=0x3B
                 	.EQU SPL=0x3D
                 	.EQU SPH=0x3E
                 	.EQU SREG=0x3F
                 	.EQU XMCRA=0x6D
                 	.EQU XMCRB=0x6C
                 
                 	.DEF R0X0=R0
                 	.DEF R0X1=R1
                 	.DEF R0X2=R2
                 	.DEF R0X3=R3
                 	.DEF R0X4=R4
                 	.DEF R0X5=R5
                 	.DEF R0X6=R6
                 	.DEF R0X7=R7
                 	.DEF R0X8=R8
                 	.DEF R0X9=R9
                 	.DEF R0XA=R10
                 	.DEF R0XB=R11
                 	.DEF R0XC=R12
                 	.DEF R0XD=R13
                 	.DEF R0XE=R14
                 	.DEF R0XF=R15
                 	.DEF R0X10=R16
                 	.DEF R0X11=R17
                 	.DEF R0X12=R18
                 	.DEF R0X13=R19
                 	.DEF R0X14=R20
                 	.DEF R0X15=R21
                 	.DEF R0X16=R22
                 	.DEF R0X17=R23
                 	.DEF R0X18=R24
                 	.DEF R0X19=R25
                 	.DEF R0X1A=R26
                 	.DEF R0X1B=R27
                 	.DEF R0X1C=R28
                 	.DEF R0X1D=R29
                 	.DEF R0X1E=R30
                 	.DEF R0X1F=R31
                 
                 	.EQU __SRAM_START=0x0100
                 	.EQU __SRAM_END=0x10FF
                 	.EQU __DSTACK_SIZE=0x0400
                 	.EQU __HEAP_SIZE=0x0000
                 	.EQU __CLEAR_SRAM_SIZE=__SRAM_END-__SRAM_START+1
                 
                 	.MACRO __CPD1N
                 	CPI  R30,LOW(@0)
                 	LDI  R26,HIGH(@0)
                 	CPC  R31,R26
                 	LDI  R26,BYTE3(@0)
                 	CPC  R22,R26
                 	LDI  R26,BYTE4(@0)
                 	CPC  R23,R26
                 	.ENDM
                 
                 	.MACRO __CPD2N
                 	CPI  R26,LOW(@0)
                 	LDI  R30,HIGH(@0)
                 	CPC  R27,R30
                 	LDI  R30,BYTE3(@0)
                 	CPC  R24,R30
                 	LDI  R30,BYTE4(@0)
                 	CPC  R25,R30
                 	.ENDM
                 
                 	.MACRO __CPWRR
                 	CP   R@0,R@2
                 	CPC  R@1,R@3
                 	.ENDM
                 
                 	.MACRO __CPWRN
                 	CPI  R@0,LOW(@2)
                 	LDI  R30,HIGH(@2)
                 	CPC  R@1,R30
                 	.ENDM
                 
                 	.MACRO __ADDB1MN
                 	SUBI R30,LOW(-@0-(@1))
                 	.ENDM
                 
                 	.MACRO __ADDB2MN
                 	SUBI R26,LOW(-@0-(@1))
                 	.ENDM
                 
                 	.MACRO __ADDW1MN
                 	SUBI R30,LOW(-@0-(@1))
                 	SBCI R31,HIGH(-@0-(@1))
                 	.ENDM
                 
                 	.MACRO __ADDW2MN
                 	SUBI R26,LOW(-@0-(@1))
                 	SBCI R27,HIGH(-@0-(@1))
                 	.ENDM
                 
                 	.MACRO __ADDW1FN
                 	SUBI R30,LOW(-2*@0-(@1))
                 	SBCI R31,HIGH(-2*@0-(@1))
                 	.ENDM
                 
                 	.MACRO __ADDD1FN
                 	SUBI R30,LOW(-2*@0-(@1))
                 	SBCI R31,HIGH(-2*@0-(@1))
                 	SBCI R22,BYTE3(-2*@0-(@1))
                 	.ENDM
                 
                 	.MACRO __ADDD1N
                 	SUBI R30,LOW(-@0)
                 	SBCI R31,HIGH(-@0)
                 	SBCI R22,BYTE3(-@0)
                 	SBCI R23,BYTE4(-@0)
                 	.ENDM
                 
                 	.MACRO __ADDD2N
                 	SUBI R26,LOW(-@0)
                 	SBCI R27,HIGH(-@0)
                 	SBCI R24,BYTE3(-@0)
                 	SBCI R25,BYTE4(-@0)
                 	.ENDM
                 
                 	.MACRO __SUBD1N
                 	SUBI R30,LOW(@0)
                 	SBCI R31,HIGH(@0)
                 	SBCI R22,BYTE3(@0)
                 	SBCI R23,BYTE4(@0)
                 	.ENDM
                 
                 	.MACRO __SUBD2N
                 	SUBI R26,LOW(@0)
                 	SBCI R27,HIGH(@0)
                 	SBCI R24,BYTE3(@0)
                 	SBCI R25,BYTE4(@0)
                 	.ENDM
                 
                 	.MACRO __ANDBMNN
                 	LDS  R30,@0+(@1)
                 	ANDI R30,LOW(@2)
                 	STS  @0+(@1),R30
                 	.ENDM
                 
                 	.MACRO __ANDWMNN
                 	LDS  R30,@0+(@1)
                 	ANDI R30,LOW(@2)
                 	STS  @0+(@1),R30
                 	LDS  R30,@0+(@1)+1
                 	ANDI R30,HIGH(@2)
                 	STS  @0+(@1)+1,R30
                 	.ENDM
                 
                 	.MACRO __ANDD1N
                 	ANDI R30,LOW(@0)
                 	ANDI R31,HIGH(@0)
                 	ANDI R22,BYTE3(@0)
                 	ANDI R23,BYTE4(@0)
                 	.ENDM
                 
                 	.MACRO __ANDD2N
                 	ANDI R26,LOW(@0)
                 	ANDI R27,HIGH(@0)
                 	ANDI R24,BYTE3(@0)
                 	ANDI R25,BYTE4(@0)
                 	.ENDM
                 
                 	.MACRO __ORBMNN
                 	LDS  R30,@0+(@1)
                 	ORI  R30,LOW(@2)
                 	STS  @0+(@1),R30
                 	.ENDM
                 
                 	.MACRO __ORWMNN
                 	LDS  R30,@0+(@1)
                 	ORI  R30,LOW(@2)
                 	STS  @0+(@1),R30
                 	LDS  R30,@0+(@1)+1
                 	ORI  R30,HIGH(@2)
                 	STS  @0+(@1)+1,R30
                 	.ENDM
                 
                 	.MACRO __ORD1N
                 	ORI  R30,LOW(@0)
                 	ORI  R31,HIGH(@0)
                 	ORI  R22,BYTE3(@0)
                 	ORI  R23,BYTE4(@0)
                 	.ENDM
                 
                 	.MACRO __ORD2N
                 	ORI  R26,LOW(@0)
                 	ORI  R27,HIGH(@0)
                 	ORI  R24,BYTE3(@0)
                 	ORI  R25,BYTE4(@0)
                 	.ENDM
                 
                 	.MACRO __DELAY_USB
                 	LDI  R24,LOW(@0)
                 __DELAY_USB_LOOP:
                 	DEC  R24
                 	BRNE __DELAY_USB_LOOP
                 	.ENDM
                 
                 	.MACRO __DELAY_USW
                 	LDI  R24,LOW(@0)
                 	LDI  R25,HIGH(@0)
                 __DELAY_USW_LOOP:
                 	SBIW R24,1
                 	BRNE __DELAY_USW_LOOP
                 	.ENDM
                 
                 	.MACRO __GETD1S
                 	LDD  R30,Y+@0
                 	LDD  R31,Y+@0+1
                 	LDD  R22,Y+@0+2
                 	LDD  R23,Y+@0+3
                 	.ENDM
                 
                 	.MACRO __GETD2S
                 	LDD  R26,Y+@0
                 	LDD  R27,Y+@0+1
                 	LDD  R24,Y+@0+2
                 	LDD  R25,Y+@0+3
                 	.ENDM
                 
                 	.MACRO __PUTD1S
                 	STD  Y+@0,R30
                 	STD  Y+@0+1,R31
                 	STD  Y+@0+2,R22
                 	STD  Y+@0+3,R23
                 	.ENDM
                 
                 	.MACRO __PUTD2S
                 	STD  Y+@0,R26
                 	STD  Y+@0+1,R27
                 	STD  Y+@0+2,R24
                 	STD  Y+@0+3,R25
                 	.ENDM
                 
                 	.MACRO __PUTDZ2
                 	STD  Z+@0,R26
                 	STD  Z+@0+1,R27
                 	STD  Z+@0+2,R24
                 	STD  Z+@0+3,R25
                 	.ENDM
                 
                 	.MACRO __CLRD1S
                 	STD  Y+@0,R30
                 	STD  Y+@0+1,R30
                 	STD  Y+@0+2,R30
                 	STD  Y+@0+3,R30
                 	.ENDM
                 
                 	.MACRO __POINTB1MN
                 	LDI  R30,LOW(@0+(@1))
                 	.ENDM
                 
                 	.MACRO __POINTW1MN
                 	LDI  R30,LOW(@0+(@1))
                 	LDI  R31,HIGH(@0+(@1))
                 	.ENDM
                 
                 	.MACRO __POINTD1M
                 	LDI  R30,LOW(@0)
                 	LDI  R31,HIGH(@0)
                 	LDI  R22,BYTE3(@0)
                 	LDI  R23,BYTE4(@0)
                 	.ENDM
                 
                 	.MACRO __POINTW1FN
                 	LDI  R30,LOW(2*@0+(@1))
                 	LDI  R31,HIGH(2*@0+(@1))
                 	.ENDM
                 
                 	.MACRO __POINTD1FN
                 	LDI  R30,LOW(2*@0+(@1))
                 	LDI  R31,HIGH(2*@0+(@1))
                 	LDI  R22,BYTE3(2*@0+(@1))
                 	LDI  R23,BYTE4(2*@0+(@1))
                 	.ENDM
                 
                 	.MACRO __POINTB2MN
                 	LDI  R26,LOW(@0+(@1))
                 	.ENDM
                 
                 	.MACRO __POINTW2MN
                 	LDI  R26,LOW(@0+(@1))
                 	LDI  R27,HIGH(@0+(@1))
                 	.ENDM
                 
                 	.MACRO __POINTW2FN
                 	LDI  R26,LOW(2*@0+(@1))
                 	LDI  R27,HIGH(2*@0+(@1))
                 	.ENDM
                 
                 	.MACRO __POINTD2FN
                 	LDI  R26,LOW(2*@0+(@1))
                 	LDI  R27,HIGH(2*@0+(@1))
                 	LDI  R24,BYTE3(2*@0+(@1))
                 	LDI  R25,BYTE4(2*@0+(@1))
                 	.ENDM
                 
                 	.MACRO __POINTBRM
                 	LDI  R@0,LOW(@1)
                 	.ENDM
                 
                 	.MACRO __POINTWRM
                 	LDI  R@0,LOW(@2)
                 	LDI  R@1,HIGH(@2)
                 	.ENDM
                 
                 	.MACRO __POINTBRMN
                 	LDI  R@0,LOW(@1+(@2))
                 	.ENDM
                 
                 	.MACRO __POINTWRMN
                 	LDI  R@0,LOW(@2+(@3))
                 	LDI  R@1,HIGH(@2+(@3))
                 	.ENDM
                 
                 	.MACRO __POINTWRFN
                 	LDI  R@0,LOW(@2*2+(@3))
                 	LDI  R@1,HIGH(@2*2+(@3))
                 	.ENDM
                 
                 	.MACRO __GETD1N
                 	LDI  R30,LOW(@0)
                 	LDI  R31,HIGH(@0)
                 	LDI  R22,BYTE3(@0)
                 	LDI  R23,BYTE4(@0)
                 	.ENDM
                 
                 	.MACRO __GETD2N
                 	LDI  R26,LOW(@0)
                 	LDI  R27,HIGH(@0)
                 	LDI  R24,BYTE3(@0)
                 	LDI  R25,BYTE4(@0)
                 	.ENDM
                 
                 	.MACRO __GETB1MN
                 	LDS  R30,@0+(@1)
                 	.ENDM
                 
                 	.MACRO __GETB1HMN
                 	LDS  R31,@0+(@1)
                 	.ENDM
                 
                 	.MACRO __GETW1MN
                 	LDS  R30,@0+(@1)
                 	LDS  R31,@0+(@1)+1
                 	.ENDM
                 
                 	.MACRO __GETD1MN
                 	LDS  R30,@0+(@1)
                 	LDS  R31,@0+(@1)+1
                 	LDS  R22,@0+(@1)+2
                 	LDS  R23,@0+(@1)+3
                 	.ENDM
                 
                 	.MACRO __GETBRMN
                 	LDS  R@0,@1+(@2)
                 	.ENDM
                 
                 	.MACRO __GETWRMN
                 	LDS  R@0,@2+(@3)
                 	LDS  R@1,@2+(@3)+1
                 	.ENDM
                 
                 	.MACRO __GETWRZ
                 	LDD  R@0,Z+@2
                 	LDD  R@1,Z+@2+1
                 	.ENDM
                 
                 	.MACRO __GETD2Z
                 	LDD  R26,Z+@0
                 	LDD  R27,Z+@0+1
                 	LDD  R24,Z+@0+2
                 	LDD  R25,Z+@0+3
                 	.ENDM
                 
                 	.MACRO __GETB2MN
                 	LDS  R26,@0+(@1)
                 	.ENDM
                 
                 	.MACRO __GETW2MN
                 	LDS  R26,@0+(@1)
                 	LDS  R27,@0+(@1)+1
                 	.ENDM
                 
                 	.MACRO __GETD2MN
                 	LDS  R26,@0+(@1)
                 	LDS  R27,@0+(@1)+1
                 	LDS  R24,@0+(@1)+2
                 	LDS  R25,@0+(@1)+3
                 	.ENDM
                 
                 	.MACRO __PUTB1MN
                 	STS  @0+(@1),R30
                 	.ENDM
                 
                 	.MACRO __PUTW1MN
                 	STS  @0+(@1),R30
                 	STS  @0+(@1)+1,R31
                 	.ENDM
                 
                 	.MACRO __PUTD1MN
                 	STS  @0+(@1),R30
                 	STS  @0+(@1)+1,R31
                 	STS  @0+(@1)+2,R22
                 	STS  @0+(@1)+3,R23
                 	.ENDM
                 
                 	.MACRO __PUTB1EN
                 	LDI  R26,LOW(@0+(@1))
                 	LDI  R27,HIGH(@0+(@1))
                 	CALL __EEPROMWRB
                 	.ENDM
                 
                 	.MACRO __PUTW1EN
                 	LDI  R26,LOW(@0+(@1))
                 	LDI  R27,HIGH(@0+(@1))
                 	CALL __EEPROMWRW
                 	.ENDM
                 
                 	.MACRO __PUTD1EN
                 	LDI  R26,LOW(@0+(@1))
                 	LDI  R27,HIGH(@0+(@1))
                 	CALL __EEPROMWRD
                 	.ENDM
                 
                 	.MACRO __PUTBR0MN
                 	STS  @0+(@1),R0
                 	.ENDM
                 
                 	.MACRO __PUTBMRN
                 	STS  @0+(@1),R@2
                 	.ENDM
                 
                 	.MACRO __PUTWMRN
                 	STS  @0+(@1),R@2
                 	STS  @0+(@1)+1,R@3
                 	.ENDM
                 
                 	.MACRO __PUTBZR
                 	STD  Z+@1,R@0
                 	.ENDM
                 
                 	.MACRO __PUTWZR
                 	STD  Z+@2,R@0
                 	STD  Z+@2+1,R@1
                 	.ENDM
                 
                 	.MACRO __GETW1R
                 	MOV  R30,R@0
                 	MOV  R31,R@1
                 	.ENDM
                 
                 	.MACRO __GETW2R
                 	MOV  R26,R@0
                 	MOV  R27,R@1
                 	.ENDM
                 
                 	.MACRO __GETWRN
                 	LDI  R@0,LOW(@2)
                 	LDI  R@1,HIGH(@2)
                 	.ENDM
                 
                 	.MACRO __PUTW1R
                 	MOV  R@0,R30
                 	MOV  R@1,R31
                 	.ENDM
                 
                 	.MACRO __PUTW2R
                 	MOV  R@0,R26
                 	MOV  R@1,R27
                 	.ENDM
                 
                 	.MACRO __ADDWRN
                 	SUBI R@0,LOW(-@2)
                 	SBCI R@1,HIGH(-@2)
                 	.ENDM
                 
                 	.MACRO __ADDWRR
                 	ADD  R@0,R@2
                 	ADC  R@1,R@3
                 	.ENDM
                 
                 	.MACRO __SUBWRN
                 	SUBI R@0,LOW(@2)
                 	SBCI R@1,HIGH(@2)
                 	.ENDM
                 
                 	.MACRO __SUBWRR
                 	SUB  R@0,R@2
                 	SBC  R@1,R@3
                 	.ENDM
                 
                 	.MACRO __ANDWRN
                 	ANDI R@0,LOW(@2)
                 	ANDI R@1,HIGH(@2)
                 	.ENDM
                 
                 	.MACRO __ANDWRR
                 	AND  R@0,R@2
                 	AND  R@1,R@3
                 	.ENDM
                 
                 	.MACRO __ORWRN
                 	ORI  R@0,LOW(@2)
                 	ORI  R@1,HIGH(@2)
                 	.ENDM
                 
                 	.MACRO __ORWRR
                 	OR   R@0,R@2
                 	OR   R@1,R@3
                 	.ENDM
                 
                 	.MACRO __EORWRR
                 	EOR  R@0,R@2
                 	EOR  R@1,R@3
                 	.ENDM
                 
                 	.MACRO __GETWRS
                 	LDD  R@0,Y+@2
                 	LDD  R@1,Y+@2+1
                 	.ENDM
                 
                 	.MACRO __PUTBSR
                 	STD  Y+@1,R@0
                 	.ENDM
                 
                 	.MACRO __PUTWSR
                 	STD  Y+@2,R@0
                 	STD  Y+@2+1,R@1
                 	.ENDM
                 
                 	.MACRO __MOVEWRR
                 	MOV  R@0,R@2
                 	MOV  R@1,R@3
                 	.ENDM
                 
                 	.MACRO __INWR
                 	IN   R@0,@2
                 	IN   R@1,@2+1
                 	.ENDM
                 
                 	.MACRO __OUTWR
                 	OUT  @2+1,R@1
                 	OUT  @2,R@0
                 	.ENDM
                 
                 	.MACRO __CALL1MN
                 	LDS  R30,@0+(@1)
                 	LDS  R31,@0+(@1)+1
                 	ICALL
                 	.ENDM
                 
                 	.MACRO __CALL1FN
                 	LDI  R30,LOW(2*@0+(@1))
                 	LDI  R31,HIGH(2*@0+(@1))
                 	CALL __GETW1PF
                 	ICALL
                 	.ENDM
                 
                 	.MACRO __CALL2EN
                 	PUSH R26
                 	PUSH R27
                 	LDI  R26,LOW(@0+(@1))
                 	LDI  R27,HIGH(@0+(@1))
                 	CALL __EEPROMRDW
                 	POP  R27
                 	POP  R26
                 	ICALL
                 	.ENDM
                 
                 	.MACRO __CALL2EX
                 	SUBI R26,LOW(-@0)
                 	SBCI R27,HIGH(-@0)
                 	CALL __EEPROMRDD
                 	ICALL
                 	.ENDM
                 
                 	.MACRO __GETW1STACK
                 	IN   R30,SPL
                 	IN   R31,SPH
                 	ADIW R30,@0+1
                 	LD   R0,Z+
                 	LD   R31,Z
                 	MOV  R30,R0
                 	.ENDM
                 
                 	.MACRO __GETD1STACK
                 	IN   R30,SPL
                 	IN   R31,SPH
                 	ADIW R30,@0+1
                 	LD   R0,Z+
                 	LD   R1,Z+
                 	LD   R22,Z
                 	MOVW R30,R0
                 	.ENDM
                 
                 	.MACRO __NBST
                 	BST  R@0,@1
                 	IN   R30,SREG
                 	LDI  R31,0x40
                 	EOR  R30,R31
                 	OUT  SREG,R30
                 	.ENDM
                 
                 
                 	.MACRO __PUTB1SN
                 	LDD  R26,Y+@0
                 	LDD  R27,Y+@0+1
                 	SUBI R26,LOW(-@1)
                 	SBCI R27,HIGH(-@1)
                 	ST   X,R30
                 	.ENDM
                 
                 	.MACRO __PUTW1SN
                 	LDD  R26,Y+@0
                 	LDD  R27,Y+@0+1
                 	SUBI R26,LOW(-@1)
                 	SBCI R27,HIGH(-@1)
                 	ST   X+,R30
                 	ST   X,R31
                 	.ENDM
                 
                 	.MACRO __PUTD1SN
                 	LDD  R26,Y+@0
                 	LDD  R27,Y+@0+1
                 	SUBI R26,LOW(-@1)
                 	SBCI R27,HIGH(-@1)
                 	CALL __PUTDP1
                 	.ENDM
                 
                 	.MACRO __PUTB1SNS
                 	LDD  R26,Y+@0
                 	LDD  R27,Y+@0+1
                 	ADIW R26,@1
                 	ST   X,R30
                 	.ENDM
                 
                 	.MACRO __PUTW1SNS
                 	LDD  R26,Y+@0
                 	LDD  R27,Y+@0+1
                 	ADIW R26,@1
                 	ST   X+,R30
                 	ST   X,R31
                 	.ENDM
                 
                 	.MACRO __PUTD1SNS
                 	LDD  R26,Y+@0
                 	LDD  R27,Y+@0+1
                 	ADIW R26,@1
                 	CALL __PUTDP1
                 	.ENDM
                 
                 	.MACRO __PUTB1PMN
                 	LDS  R26,@0
                 	LDS  R27,@0+1
                 	SUBI R26,LOW(-@1)
                 	SBCI R27,HIGH(-@1)
                 	ST   X,R30
                 	.ENDM
                 
                 	.MACRO __PUTW1PMN
                 	LDS  R26,@0
                 	LDS  R27,@0+1
                 	SUBI R26,LOW(-@1)
                 	SBCI R27,HIGH(-@1)
                 	ST   X+,R30
                 	ST   X,R31
                 	.ENDM
                 
                 	.MACRO __PUTD1PMN
                 	LDS  R26,@0
                 	LDS  R27,@0+1
                 	SUBI R26,LOW(-@1)
                 	SBCI R27,HIGH(-@1)
                 	CALL __PUTDP1
                 	.ENDM
                 
                 	.MACRO __PUTB1PMNS
                 	LDS  R26,@0
                 	LDS  R27,@0+1
                 	ADIW R26,@1
                 	ST   X,R30
                 	.ENDM
                 
                 	.MACRO __PUTW1PMNS
                 	LDS  R26,@0
                 	LDS  R27,@0+1
                 	ADIW R26,@1
                 	ST   X+,R30
                 	ST   X,R31
                 	.ENDM
                 
                 	.MACRO __PUTD1PMNS
                 	LDS  R26,@0
                 	LDS  R27,@0+1
                 	ADIW R26,@1
                 	CALL __PUTDP1
                 	.ENDM
                 
                 	.MACRO __PUTB1RN
                 	MOVW R26,R@0
                 	SUBI R26,LOW(-@1)
                 	SBCI R27,HIGH(-@1)
                 	ST   X,R30
                 	.ENDM
                 
                 	.MACRO __PUTW1RN
                 	MOVW R26,R@0
                 	SUBI R26,LOW(-@1)
                 	SBCI R27,HIGH(-@1)
                 	ST   X+,R30
                 	ST   X,R31
                 	.ENDM
                 
                 	.MACRO __PUTD1RN
                 	MOVW R26,R@0
                 	SUBI R26,LOW(-@1)
                 	SBCI R27,HIGH(-@1)
                 	CALL __PUTDP1
                 	.ENDM
                 
                 	.MACRO __PUTB1RNS
                 	MOVW R26,R@0
                 	ADIW R26,@1
                 	ST   X,R30
                 	.ENDM
                 
                 	.MACRO __PUTW1RNS
                 	MOVW R26,R@0
                 	ADIW R26,@1
                 	ST   X+,R30
                 	ST   X,R31
                 	.ENDM
                 
                 	.MACRO __PUTD1RNS
                 	MOVW R26,R@0
                 	ADIW R26,@1
                 	CALL __PUTDP1
                 	.ENDM
                 
                 	.MACRO __PUTB1RON
                 	MOV  R26,R@0
                 	MOV  R27,R@1
                 	SUBI R26,LOW(-@2)
                 	SBCI R27,HIGH(-@2)
                 	ST   X,R30
                 	.ENDM
                 
                 	.MACRO __PUTW1RON
                 	MOV  R26,R@0
                 	MOV  R27,R@1
                 	SUBI R26,LOW(-@2)
                 	SBCI R27,HIGH(-@2)
                 	ST   X+,R30
                 	ST   X,R31
                 	.ENDM
                 
                 	.MACRO __PUTD1RON
                 	MOV  R26,R@0
                 	MOV  R27,R@1
                 	SUBI R26,LOW(-@2)
                 	SBCI R27,HIGH(-@2)
                 	CALL __PUTDP1
                 	.ENDM
                 
                 	.MACRO __PUTB1RONS
                 	MOV  R26,R@0
                 	MOV  R27,R@1
                 	ADIW R26,@2
                 	ST   X,R30
                 	.ENDM
                 
                 	.MACRO __PUTW1RONS
                 	MOV  R26,R@0
                 	MOV  R27,R@1
                 	ADIW R26,@2
                 	ST   X+,R30
                 	ST   X,R31
                 	.ENDM
                 
                 	.MACRO __PUTD1RONS
                 	MOV  R26,R@0
                 	MOV  R27,R@1
                 	ADIW R26,@2
                 	CALL __PUTDP1
                 	.ENDM
                 
                 
                 	.MACRO __GETB1SX
                 	MOVW R30,R28
                 	SUBI R30,LOW(-@0)
                 	SBCI R31,HIGH(-@0)
                 	LD   R30,Z
                 	.ENDM
                 
                 	.MACRO __GETB1HSX
                 	MOVW R30,R28
                 	SUBI R30,LOW(-@0)
                 	SBCI R31,HIGH(-@0)
                 	LD   R31,Z
                 	.ENDM
                 
                 	.MACRO __GETW1SX
                 	MOVW R30,R28
                 	SUBI R30,LOW(-@0)
                 	SBCI R31,HIGH(-@0)
                 	LD   R0,Z+
                 	LD   R31,Z
                 	MOV  R30,R0
                 	.ENDM
                 
                 	.MACRO __GETD1SX
                 	MOVW R30,R28
                 	SUBI R30,LOW(-@0)
                 	SBCI R31,HIGH(-@0)
                 	LD   R0,Z+
                 	LD   R1,Z+
                 	LD   R22,Z+
                 	LD   R23,Z
                 	MOVW R30,R0
                 	.ENDM
                 
                 	.MACRO __GETB2SX
                 	MOVW R26,R28
                 	SUBI R26,LOW(-@0)
                 	SBCI R27,HIGH(-@0)
                 	LD   R26,X
                 	.ENDM
                 
                 	.MACRO __GETW2SX
                 	MOVW R26,R28
                 	SUBI R26,LOW(-@0)
                 	SBCI R27,HIGH(-@0)
                 	LD   R0,X+
                 	LD   R27,X
                 	MOV  R26,R0
                 	.ENDM
                 
                 	.MACRO __GETD2SX
                 	MOVW R26,R28
                 	SUBI R26,LOW(-@0)
                 	SBCI R27,HIGH(-@0)
                 	LD   R0,X+
                 	LD   R1,X+
                 	LD   R24,X+
                 	LD   R25,X
                 	MOVW R26,R0
                 	.ENDM
                 
                 	.MACRO __GETBRSX
                 	MOVW R30,R28
                 	SUBI R30,LOW(-@1)
                 	SBCI R31,HIGH(-@1)
                 	LD   R@0,Z
                 	.ENDM
                 
                 	.MACRO __GETWRSX
                 	MOVW R30,R28
                 	SUBI R30,LOW(-@2)
                 	SBCI R31,HIGH(-@2)
                 	LD   R@0,Z+
                 	LD   R@1,Z
                 	.ENDM
                 
                 	.MACRO __GETBRSX2
                 	MOVW R26,R28
                 	SUBI R26,LOW(-@1)
                 	SBCI R27,HIGH(-@1)
                 	LD   R@0,X
                 	.ENDM
                 
                 	.MACRO __GETWRSX2
                 	MOVW R26,R28
                 	SUBI R26,LOW(-@2)
                 	SBCI R27,HIGH(-@2)
                 	LD   R@0,X+
                 	LD   R@1,X
                 	.ENDM
                 
                 	.MACRO __LSLW8SX
                 	MOVW R30,R28
                 	SUBI R30,LOW(-@0)
                 	SBCI R31,HIGH(-@0)
                 	LD   R31,Z
                 	CLR  R30
                 	.ENDM
                 
                 	.MACRO __PUTB1SX
                 	MOVW R26,R28
                 	SUBI R26,LOW(-@0)
                 	SBCI R27,HIGH(-@0)
                 	ST   X,R30
                 	.ENDM
                 
                 	.MACRO __PUTW1SX
                 	MOVW R26,R28
                 	SUBI R26,LOW(-@0)
                 	SBCI R27,HIGH(-@0)
                 	ST   X+,R30
                 	ST   X,R31
                 	.ENDM
                 
                 	.MACRO __PUTD1SX
                 	MOVW R26,R28
                 	SUBI R26,LOW(-@0)
                 	SBCI R27,HIGH(-@0)
                 	ST   X+,R30
                 	ST   X+,R31
                 	ST   X+,R22
                 	ST   X,R23
                 	.ENDM
                 
                 	.MACRO __CLRW1SX
                 	MOVW R26,R28
                 	SUBI R26,LOW(-@0)
                 	SBCI R27,HIGH(-@0)
                 	ST   X+,R30
                 	ST   X,R30
                 	.ENDM
                 
                 	.MACRO __CLRD1SX
                 	MOVW R26,R28
                 	SUBI R26,LOW(-@0)
                 	SBCI R27,HIGH(-@0)
                 	ST   X+,R30
                 	ST   X+,R30
                 	ST   X+,R30
                 	ST   X,R30
                 	.ENDM
                 
                 	.MACRO __PUTB2SX
                 	MOVW R30,R28
                 	SUBI R30,LOW(-@0)
                 	SBCI R31,HIGH(-@0)
                 	ST   Z,R26
                 	.ENDM
                 
                 	.MACRO __PUTW2SX
                 	MOVW R30,R28
                 	SUBI R30,LOW(-@0)
                 	SBCI R31,HIGH(-@0)
                 	ST   Z+,R26
                 	ST   Z,R27
                 	.ENDM
                 
                 	.MACRO __PUTD2SX
                 	MOVW R30,R28
                 	SUBI R30,LOW(-@0)
                 	SBCI R31,HIGH(-@0)
                 	ST   Z+,R26
                 	ST   Z+,R27
                 	ST   Z+,R24
                 	ST   Z,R25
                 	.ENDM
                 
                 	.MACRO __PUTBSRX
                 	MOVW R30,R28
                 	SUBI R30,LOW(-@1)
                 	SBCI R31,HIGH(-@1)
                 	ST   Z,R@0
                 	.ENDM
                 
                 	.MACRO __PUTWSRX
                 	MOVW R30,R28
                 	SUBI R30,LOW(-@2)
                 	SBCI R31,HIGH(-@2)
                 	ST   Z+,R@0
                 	ST   Z,R@1
                 	.ENDM
                 
                 	.MACRO __PUTB1SNX
                 	MOVW R26,R28
                 	SUBI R26,LOW(-@0)
                 	SBCI R27,HIGH(-@0)
                 	LD   R0,X+
                 	LD   R27,X
                 	MOV  R26,R0
                 	SUBI R26,LOW(-@1)
                 	SBCI R27,HIGH(-@1)
                 	ST   X,R30
                 	.ENDM
                 
                 	.MACRO __PUTW1SNX
                 	MOVW R26,R28
                 	SUBI R26,LOW(-@0)
                 	SBCI R27,HIGH(-@0)
                 	LD   R0,X+
                 	LD   R27,X
                 	MOV  R26,R0
                 	SUBI R26,LOW(-@1)
                 	SBCI R27,HIGH(-@1)
                 	ST   X+,R30
                 	ST   X,R31
                 	.ENDM
                 
                 	.MACRO __PUTD1SNX
                 	MOVW R26,R28
                 	SUBI R26,LOW(-@0)
                 	SBCI R27,HIGH(-@0)
                 	LD   R0,X+
                 	LD   R27,X
                 	MOV  R26,R0
                 	SUBI R26,LOW(-@1)
                 	SBCI R27,HIGH(-@1)
                 	ST   X+,R30
                 	ST   X+,R31
                 	ST   X+,R22
                 	ST   X,R23
                 	.ENDM
                 
                 	.MACRO __MULBRR
                 	MULS R@0,R@1
                 	MOVW R30,R0
                 	.ENDM
                 
                 	.MACRO __MULBRRU
                 	MUL  R@0,R@1
                 	MOVW R30,R0
                 	.ENDM
                 
                 	.MACRO __MULBRR0
                 	MULS R@0,R@1
                 	.ENDM
                 
                 	.MACRO __MULBRRU0
                 	MUL  R@0,R@1
                 	.ENDM
                 
                 	.MACRO __MULBNWRU
                 	LDI  R26,@2
                 	MUL  R26,R@0
                 	MOVW R30,R0
                 	MUL  R26,R@1
                 	ADD  R31,R0
                 	.ENDM
                 
                 ;NAME DEFINITIONS FOR GLOBAL VARIABLES ALLOCATED TO REGISTERS
                 	.DEF _res=R5
                 	.DEF _nbytes=R6
                 	.DEF _nbytes_msb=R7
                 	.DEF __lcd_x=R4
                 	.DEF __lcd_y=R9
                 	.DEF __lcd_maxx=R8
                 
                 	.CSEG
                 	.ORG 0x00
                 
                 ;START OF CODE MARKER
                 __START_OF_CODE:
                 
                 ;INTERRUPT VECTORS
000000 940c 01cc 	JMP  __RESET
000002 940c 0000 	JMP  0x00
000004 940c 0000 	JMP  0x00
000006 940c 0000 	JMP  0x00
000008 940c 0000 	JMP  0x00
00000a 940c 0000 	JMP  0x00
00000c 940c 0000 	JMP  0x00
00000e 940c 0000 	JMP  0x00
000010 940c 0000 	JMP  0x00
000012 940c 0000 	JMP  0x00
000014 940c 0000 	JMP  0x00
000016 940c 0000 	JMP  0x00
000018 940c 0000 	JMP  0x00
00001a 940c 0000 	JMP  0x00
00001c 940c 01fc 	JMP  _timer_comp_isr
00001e 940c 0000 	JMP  0x00
000020 940c 0000 	JMP  0x00
000022 940c 0000 	JMP  0x00
000024 940c 0000 	JMP  0x00
000026 940c 0000 	JMP  0x00
000028 940c 0000 	JMP  0x00
00002a 940c 0000 	JMP  0x00
00002c 940c 0000 	JMP  0x00
00002e 940c 0000 	JMP  0x00
000030 940c 0000 	JMP  0x00
000032 940c 0000 	JMP  0x00
000034 940c 0000 	JMP  0x00
000036 940c 0000 	JMP  0x00
000038 940c 0000 	JMP  0x00
00003a 940c 0000 	JMP  0x00
00003c 940c 0000 	JMP  0x00
00003e 940c 0000 	JMP  0x00
000040 940c 0000 	JMP  0x00
000042 940c 0000 	JMP  0x00
000044 940c 0000 	JMP  0x00
                 
                 _error_msg:
000046 0132
000047 0133
000048 013f
000049 014a      	.DB  LOW(_0x0*2),HIGH(_0x0*2),LOW(_0x0*2+1),HIGH(_0x0*2+1),LOW(_0x0*2+13),HIGH(_0x0*2+13),LOW(_0x0*2+24),HIGH(_0x0*2+24)
00004a 0157
00004b 0162
00004c 016d
00004d 017d      	.DB  LOW(_0x0*2+37),HIGH(_0x0*2+37),LOW(_0x0*2+48),HIGH(_0x0*2+48),LOW(_0x0*2+59),HIGH(_0x0*2+59),LOW(_0x0*2+75),HIGH(_0x0*2+75)
00004e 0187
00004f 0190
000050 01a2
000051 01b5      	.DB  LOW(_0x0*2+85),HIGH(_0x0*2+85),LOW(_0x0*2+94),HIGH(_0x0*2+94),LOW(_0x0*2+112),HIGH(_0x0*2+112),LOW(_0x0*2+131),HIGH(_0x0*2+131)
000052 01c6
000053 01d5
000054 01e6
000055 01f6      	.DB  LOW(_0x0*2+148),HIGH(_0x0*2+148),LOW(_0x0*2+163),HIGH(_0x0*2+163),LOW(_0x0*2+180),HIGH(_0x0*2+180),LOW(_0x0*2+196),HIGH(_0x0*2+196)
                 _sizem:
000056 5609
000057 3100
000058 0405
000059 0001      	.DB  0x9,0x56,0x0,0x31,0x5,0x4,0x1,0x0
00005a 0019      	.DB  0x19,0x0
                 _size_rx:
00005b 0076
00005c 0031
D:\projetos\camera\codevision_cam_sd\Debug\List\camera.asm(1149): warning: .cseg .db misalignment - padding zero byte
00005d 0000      	.DB  0x76,0x0,0x31,0x0,0x0
                 _take:
00005e 5605
00005f 3600
000060 0001      	.DB  0x5,0x56,0x0,0x36,0x1,0x0
                 _take_rx:
000061 0076
000062 0036
D:\projetos\camera\codevision_cam_sd\Debug\List\camera.asm(1153): warning: .cseg .db misalignment - padding zero byte
000063 0000      	.DB  0x76,0x0,0x36,0x0,0x0
                 _read_f:
000064 5605
000065 3400
000066 0001      	.DB  0x5,0x56,0x0,0x34,0x1,0x0
                 _stop:
000067 5605
000068 3600
000069 0301      	.DB  0x5,0x56,0x0,0x36,0x1,0x3
                 _stop_rx:
00006a 0076
00006b 0036
D:\projetos\camera\codevision_cam_sd\Debug\List\camera.asm(1159): warning: .cseg .db misalignment - padding zero byte
00006c 0000      	.DB  0x76,0x0,0x36,0x0,0x0
                 _k1:
00006d 2220
00006e 2b2a
00006f 5b2c
000070 5d3d      	.DB  0x20,0x22,0x2A,0x2B,0x2C,0x5B,0x3D,0x5D
000071 7f7c
D:\projetos\camera\codevision_cam_sd\Debug\List\camera.asm(1162): warning: .cseg .db misalignment - padding zero byte
000072 0000      	.DB  0x7C,0x7F,0x0
                 _vst_G101:
000073 0400
000074 0200
000075 0100
000076 0080      	.DB  0x0,0x4,0x0,0x2,0x0,0x1,0x80,0x0
000077 0040
000078 0020
000079 0010
00007a 0008      	.DB  0x40,0x0,0x20,0x0,0x10,0x0,0x8,0x0
00007b 0004
00007c 0002
00007d 0000      	.DB  0x4,0x0,0x2,0x0,0x0,0x0
                 _cst_G101:
00007e 8000
00007f 4000
000080 2000
000081 1000      	.DB  0x0,0x80,0x0,0x40,0x0,0x20,0x0,0x10
000082 0800
000083 4000
000084 2000
000085 1000      	.DB  0x0,0x8,0x0,0x40,0x0,0x20,0x0,0x10
000086 0800
000087 0400
000088 0200      	.DB  0x0,0x8,0x0,0x4,0x0,0x2
                 _tbl10_G102:
000089 2710
00008a 03e8
00008b 0064
00008c 000a      	.DB  0x10,0x27,0xE8,0x3,0x64,0x0,0xA,0x0
00008d 0001      	.DB  0x1,0x0
                 _tbl16_G102:
00008e 1000
00008f 0100
000090 0010
000091 0001      	.DB  0x0,0x10,0x0,0x1,0x10,0x0,0x1,0x0
                 
                 _0x3:
000092 3a30
D:\projetos\camera\codevision_cam_sd\Debug\List\camera.asm(1178): warning: .cseg .db misalignment - padding zero byte
000093 002f      	.DB  0x30,0x3A,0x2F
                 _0x4:
000094 3a30
000095 702f
000096 6369
000097 6a2e      	.DB  0x30,0x3A,0x2F,0x70,0x69,0x63,0x2E,0x6A
000098 6770      	.DB  0x70,0x67
                 _0x0:
000099 4600
00009a 5f52
00009b 4944
00009c 4b53      	.DB  0x0,0x46,0x52,0x5F,0x44,0x49,0x53,0x4B
00009d 455f
00009e 5252
00009f 4600
0000a0 5f52      	.DB  0x5F,0x45,0x52,0x52,0x0,0x46,0x52,0x5F
0000a1 4e49
0000a2 5f54
0000a3 5245
0000a4 0052      	.DB  0x49,0x4E,0x54,0x5F,0x45,0x52,0x52,0x0
0000a5 5246
0000a6 4e5f
0000a7 544f
0000a8 525f      	.DB  0x46,0x52,0x5F,0x4E,0x4F,0x54,0x5F,0x52
0000a9 4145
0000aa 5944
0000ab 4600
0000ac 5f52      	.DB  0x45,0x41,0x44,0x59,0x0,0x46,0x52,0x5F
0000ad 4f4e
0000ae 465f
0000af 4c49
0000b0 0045      	.DB  0x4E,0x4F,0x5F,0x46,0x49,0x4C,0x45,0x0
0000b1 5246
0000b2 4e5f
0000b3 5f4f
0000b4 4150      	.DB  0x46,0x52,0x5F,0x4E,0x4F,0x5F,0x50,0x41
0000b5 4854
0000b6 4600
0000b7 5f52
0000b8 4e49      	.DB  0x54,0x48,0x0,0x46,0x52,0x5F,0x49,0x4E
0000b9 4156
0000ba 494c
0000bb 5f44
0000bc 414e      	.DB  0x56,0x41,0x4C,0x49,0x44,0x5F,0x4E,0x41
0000bd 454d
0000be 4600
0000bf 5f52
0000c0 4544      	.DB  0x4D,0x45,0x0,0x46,0x52,0x5F,0x44,0x45
0000c1 494e
0000c2 4445
0000c3 4600
0000c4 5f52      	.DB  0x4E,0x49,0x45,0x44,0x0,0x46,0x52,0x5F
0000c5 5845
0000c6 5349
0000c7 0054
0000c8 5246      	.DB  0x45,0x58,0x49,0x53,0x54,0x0,0x46,0x52
0000c9 495f
0000ca 564e
0000cb 4c41
0000cc 4449      	.DB  0x5F,0x49,0x4E,0x56,0x41,0x4C,0x49,0x44
0000cd 4f5f
0000ce 4a42
0000cf 4345
0000d0 0054      	.DB  0x5F,0x4F,0x42,0x4A,0x45,0x43,0x54,0x0
0000d1 5246
0000d2 575f
0000d3 4952
0000d4 4554      	.DB  0x46,0x52,0x5F,0x57,0x52,0x49,0x54,0x45
0000d5 505f
0000d6 4f52
0000d7 4554
0000d8 5443      	.DB  0x5F,0x50,0x52,0x4F,0x54,0x45,0x43,0x54
0000d9 4445
0000da 4600
0000db 5f52
0000dc 4e49      	.DB  0x45,0x44,0x0,0x46,0x52,0x5F,0x49,0x4E
0000dd 4156
0000de 494c
0000df 5f44
0000e0 5244      	.DB  0x56,0x41,0x4C,0x49,0x44,0x5F,0x44,0x52
0000e1 5649
0000e2 0045
0000e3 5246
0000e4 4e5f      	.DB  0x49,0x56,0x45,0x0,0x46,0x52,0x5F,0x4E
0000e5 544f
0000e6 455f
0000e7 414e
0000e8 4c42      	.DB  0x4F,0x54,0x5F,0x45,0x4E,0x41,0x42,0x4C
0000e9 4445
0000ea 4600
0000eb 5f52
0000ec 4f4e      	.DB  0x45,0x44,0x0,0x46,0x52,0x5F,0x4E,0x4F
0000ed 465f
0000ee 4c49
0000ef 5345
0000f0 5359      	.DB  0x5F,0x46,0x49,0x4C,0x45,0x53,0x59,0x53
0000f1 4554
0000f2 004d
0000f3 5246
0000f4 4d5f      	.DB  0x54,0x45,0x4D,0x0,0x46,0x52,0x5F,0x4D
0000f5 464b
0000f6 5f53
0000f7 4241
0000f8 524f      	.DB  0x4B,0x46,0x53,0x5F,0x41,0x42,0x4F,0x52
0000f9 4554
0000fa 0044
0000fb 5246
0000fc 545f      	.DB  0x54,0x45,0x44,0x0,0x46,0x52,0x5F,0x54
0000fd 4d49
0000fe 4f45
0000ff 5455
000100 4500      	.DB  0x49,0x4D,0x45,0x4F,0x55,0x54,0x0,0x45
000101 5252
000102 524f
000103 203a
000104 7025      	.DB  0x52,0x52,0x4F,0x52,0x3A,0x20,0x25,0x70
000105 0a0d
000106 4500
000107 5252
000108 204f      	.DB  0xD,0xA,0x0,0x45,0x52,0x52,0x4F,0x20
000109 4f4e
00010a 5320
00010b 4344
00010c 5241      	.DB  0x4E,0x4F,0x20,0x53,0x44,0x43,0x41,0x52
00010d 2044
00010e 4c00
00010f 474f
000110 4349      	.DB  0x44,0x20,0x0,0x4C,0x4F,0x47,0x49,0x43
000111 4c41
000112 4420
000113 4952
000114 4556      	.DB  0x41,0x4C,0x20,0x44,0x52,0x49,0x56,0x45
000115 3020
000116 0020
000117 4f4d
000118 4e55      	.DB  0x20,0x30,0x20,0x0,0x4D,0x4F,0x55,0x4E
000119 4554
00011a 2044
00011b 4b4f
00011c 2020      	.DB  0x54,0x45,0x44,0x20,0x4F,0x4B,0x20,0x20
00011d 2020
00011e 2020
00011f 2000
000120 5241      	.DB  0x20,0x20,0x20,0x20,0x0,0x20,0x41,0x52
000121 5551
000122 5649
000123 204f
000124 5243      	.DB  0x51,0x55,0x49,0x56,0x4F,0x20,0x43,0x52
000125 4149
000126 4f44
000127 0020
000128 4620      	.DB  0x49,0x41,0x44,0x4F,0x20,0x0,0x20,0x46
000129 4c49
00012a 2045
00012b 203d
00012c 4950      	.DB  0x49,0x4C,0x45,0x20,0x3D,0x20,0x50,0x49
00012d 2e43
00012e 504a
00012f 2047
000130 5300      	.DB  0x43,0x2E,0x4A,0x50,0x47,0x20,0x0,0x53
000131 5a49
000132 2045
000133 4d49
000134 4741      	.DB  0x49,0x5A,0x45,0x20,0x49,0x4D,0x41,0x47
000135 2045
000136 2020
000137 2020
000138 0020      	.DB  0x45,0x20,0x20,0x20,0x20,0x20,0x20,0x0
000139 3436
00013a 2030
00013b 2058
00013c 3834      	.DB  0x36,0x34,0x30,0x20,0x58,0x20,0x34,0x38
00013d 2030
00013e 2020
00013f 2020
000140 2020      	.DB  0x30,0x20,0x20,0x20,0x20,0x20,0x20,0x20
000141 4300
000142 4d41
000143 5245
000144 2041      	.DB  0x0,0x43,0x41,0x4D,0x45,0x52,0x41,0x20
000145 414e
000146 204f
000147 5852
000148 5400      	.DB  0x4E,0x41,0x4F,0x20,0x52,0x58,0x0,0x54
000149 4b41
00014a 2045
00014b 2041
00014c 4950      	.DB  0x41,0x4B,0x45,0x20,0x41,0x20,0x50,0x49
00014d 5443
00014e 5255
00014f 2045
000150 2020      	.DB  0x43,0x54,0x55,0x52,0x45,0x20,0x20,0x20
000151 5700
000152 4941
000153 4854
000154 4e49      	.DB  0x0,0x57,0x41,0x49,0x54,0x48,0x49,0x4E
000155 2e47
000156 2e2e
000157 2e2e
000158 202e      	.DB  0x47,0x2E,0x2E,0x2E,0x2E,0x2E,0x2E,0x20
000159 2020
00015a 4500
00015b 5252
00015c 524f      	.DB  0x20,0x20,0x0,0x45,0x52,0x52,0x4F,0x52
00015d 5420
00015e 4b41
00015f 2045
000160 2020      	.DB  0x20,0x54,0x41,0x4B,0x45,0x20,0x20,0x20
000161 0020
000162 4552
000163 4441
000164 4e49      	.DB  0x20,0x0,0x52,0x45,0x41,0x44,0x49,0x4E
000165 2047
000166 4950
000167 5443
000168 5255      	.DB  0x47,0x20,0x50,0x49,0x43,0x54,0x55,0x52
000169 2045
00016a 2000
00016b 203d
00016c 5942      	.DB  0x45,0x20,0x0,0x20,0x3D,0x20,0x42,0x59
00016d 4554
00016e 2053
00016f 2020
000170 5300      	.DB  0x54,0x45,0x53,0x20,0x20,0x20,0x0,0x53
000171 4f54
000172 5050
000173 4445
000174 5220      	.DB  0x54,0x4F,0x50,0x50,0x45,0x44,0x20,0x52
000175 4145
000176 4944
000177 474e
000178 5300      	.DB  0x45,0x41,0x44,0x49,0x4E,0x47,0x0,0x53
000179 5641
00017a 4445
00017b 4920
00017c 204e      	.DB  0x41,0x56,0x45,0x44,0x20,0x49,0x4E,0x20
00017d 4453
00017e 4143
00017f 4452
000180 4300      	.DB  0x53,0x44,0x43,0x41,0x52,0x44,0x0,0x43
000181 4d41
000182 5245
000183 2041
000184 5454      	.DB  0x41,0x4D,0x45,0x52,0x41,0x20,0x54,0x54
000185 204c
000186 4e41
000187 2044
000188 0020      	.DB  0x4C,0x20,0x41,0x4E,0x44,0x20,0x20,0x0
000189 4453
00018a 4143
00018b 4452
00018c 4120      	.DB  0x53,0x44,0x43,0x41,0x52,0x44,0x20,0x41
00018d 4d54
00018e 4745
00018f 3141
000190 3832      	.DB  0x54,0x4D,0x45,0x47,0x41,0x31,0x32,0x38
000191 5000
000192 4552
000193 4150
000194 4552      	.DB  0x0,0x50,0x52,0x45,0x50,0x41,0x52,0x45
000195 5320
000196 4344
000197 5241
000198 2044      	.DB  0x20,0x53,0x44,0x43,0x41,0x52,0x44,0x20
D:\projetos\camera\codevision_cam_sd\Debug\List\camera.asm(1247): warning: .cseg .db misalignment - padding zero byte
000199 0000      	.DB  0x0
                 _0x2000003:
D:\projetos\camera\codevision_cam_sd\Debug\List\camera.asm(1249): warning: .cseg .db misalignment - padding zero byte
00019a 0001      	.DB  0x1
                 _0x2020000:
00019b feeb
00019c 4d90
00019d 4453
00019e 534f      	.DB  0xEB,0xFE,0x90,0x4D,0x53,0x44,0x4F,0x53
00019f 2e35
0001a0 0030
0001a1 4f4e
0001a2 4e20      	.DB  0x35,0x2E,0x30,0x0,0x4E,0x4F,0x20,0x4E
0001a3 4d41
0001a4 2045
0001a5 2020
0001a6 4620      	.DB  0x41,0x4D,0x45,0x20,0x20,0x20,0x20,0x46
0001a7 5441
0001a8 3233
0001a9 2020
0001aa 0020      	.DB  0x41,0x54,0x33,0x32,0x20,0x20,0x20,0x0
0001ab 4f4e
0001ac 4e20
0001ad 4d41
0001ae 2045      	.DB  0x4E,0x4F,0x20,0x4E,0x41,0x4D,0x45,0x20
0001af 2020
0001b0 4620
0001b1 5441
0001b2 2020      	.DB  0x20,0x20,0x20,0x46,0x41,0x54,0x20,0x20
0001b3 2020
0001b4 0020      	.DB  0x20,0x20,0x20,0x0
                 _0x2060003:
0001b5 c080      	.DB  0x80,0xC0
                 _0x20A0060:
D:\projetos\camera\codevision_cam_sd\Debug\List\camera.asm(1261): warning: .cseg .db misalignment - padding zero byte
0001b6 0001      	.DB  0x1
                 _0x20A0000:
0001b7 4e2d
0001b8 4e41
0001b9 4900
0001ba 464e      	.DB  0x2D,0x4E,0x41,0x4E,0x0,0x49,0x4E,0x46
D:\projetos\camera\codevision_cam_sd\Debug\List\camera.asm(1264): warning: .cseg .db misalignment - padding zero byte
0001bb 0000      	.DB  0x0
                 
                 __GLOBAL_INI_TBL:
0001bc 0003      	.DW  0x03
0001bd 0956      	.DW  _path
0001be 0124      	.DW  _0x3*2
                 
0001bf 000a      	.DW  0x0A
0001c0 0a56      	.DW  _arquivo
0001c1 0128      	.DW  _0x4*2
                 
0001c2 0001      	.DW  0x01
0001c3 0ad6      	.DW  _status_G100
0001c4 0334      	.DW  _0x2000003*2
                 
0001c5 0002      	.DW  0x02
0001c6 0adf      	.DW  __base_y_G103
0001c7 036a      	.DW  _0x2060003*2
                 
0001c8 0001      	.DW  0x01
0001c9 0ae3      	.DW  __seed_G105
0001ca 036c      	.DW  _0x20A0060*2
                 
                 _0xFFFFFFFF:
0001cb 0000      	.DW  0
                 
                 #define __GLOBAL_INI_TBL_PRESENT 1
                 
                 __RESET:
0001cc 94f8      	CLI
0001cd 27ee      	CLR  R30
0001ce bbec      	OUT  EECR,R30
                 
                 ;INTERRUPT VECTORS ARE PLACED
                 ;AT THE START OF FLASH
0001cf e0f1      	LDI  R31,1
0001d0 bff5      	OUT  MCUCR,R31
0001d1 bfe5      	OUT  MCUCR,R30
0001d2 93e0 006c 	STS  XMCRB,R30
                 
                 ;CLEAR R2-R14
0001d4 e08d      	LDI  R24,(14-2)+1
0001d5 e0a2      	LDI  R26,2
0001d6 27bb      	CLR  R27
                 __CLEAR_REG:
0001d7 93ed      	ST   X+,R30
0001d8 958a      	DEC  R24
0001d9 f7e9      	BRNE __CLEAR_REG
                 
                 ;CLEAR SRAM
0001da e080      	LDI  R24,LOW(__CLEAR_SRAM_SIZE)
0001db e190      	LDI  R25,HIGH(__CLEAR_SRAM_SIZE)
0001dc e0a0      	LDI  R26,LOW(__SRAM_START)
0001dd e0b1      	LDI  R27,HIGH(__SRAM_START)
                 __CLEAR_SRAM:
0001de 93ed      	ST   X+,R30
0001df 9701      	SBIW R24,1
0001e0 f7e9      	BRNE __CLEAR_SRAM
                 
                 ;GLOBAL VARIABLES INITIALIZATION
0001e1 e7e8      	LDI  R30,LOW(__GLOBAL_INI_TBL*2)
0001e2 e0f3      	LDI  R31,HIGH(__GLOBAL_INI_TBL*2)
                 __GLOBAL_INI_NEXT:
0001e3 9185      	LPM  R24,Z+
0001e4 9195      	LPM  R25,Z+
0001e5 9700      	SBIW R24,0
0001e6 f061      	BREQ __GLOBAL_INI_END
0001e7 91a5      	LPM  R26,Z+
0001e8 91b5      	LPM  R27,Z+
0001e9 9005      	LPM  R0,Z+
0001ea 9015      	LPM  R1,Z+
0001eb 01bf      	MOVW R22,R30
0001ec 01f0      	MOVW R30,R0
                 __GLOBAL_INI_LOOP:
0001ed 9005      	LPM  R0,Z+
0001ee 920d      	ST   X+,R0
0001ef 9701      	SBIW R24,1
0001f0 f7e1      	BRNE __GLOBAL_INI_LOOP
0001f1 01fb      	MOVW R30,R22
0001f2 cff0      	RJMP __GLOBAL_INI_NEXT
                 __GLOBAL_INI_END:
                 
0001f3 bf8b      	OUT  RAMPZ,R24
                 
                 ;HARDWARE STACK POINTER INITIALIZATION
0001f4 efef      	LDI  R30,LOW(__SRAM_END-__HEAP_SIZE)
0001f5 bfed      	OUT  SPL,R30
0001f6 e1e0      	LDI  R30,HIGH(__SRAM_END-__HEAP_SIZE)
0001f7 bfee      	OUT  SPH,R30
                 
                 ;DATA STACK POINTER INITIALIZATION
0001f8 e0c0      	LDI  R28,LOW(__SRAM_START+__DSTACK_SIZE)
0001f9 e0d5      	LDI  R29,HIGH(__SRAM_START+__DSTACK_SIZE)
                 
0001fa 940c 03f3 	JMP  _main
                 
                 	.ESEG
                 	.ORG 0
                 
                 	.DSEG
                 	.ORG 0x500
                 
                 	.CSEG
                 ;/*****************************************************
                 ;
                 ;*****************************************************/
                 ;
                 ;#include <card.h>
                 	#ifndef __SLEEP_DEFINED__
                 	#define __SLEEP_DEFINED__
                 	.EQU __se_bit=0x20
                 	.EQU __sm_mask=0x1C
                 	.EQU __sm_powerdown=0x10
                 	.EQU __sm_powersave=0x18
                 	.EQU __sm_standby=0x14
                 	.EQU __sm_ext_standby=0x1C
                 	.EQU __sm_adc_noise_red=0x08
                 	.SET power_ctrl_reg=mcucr
                 	#endif
                 
                 	.DSEG
                 
                 	.CSEG
                 _timer_comp_isr:
                 ; .FSTART _timer_comp_isr
0001fc 920a      	ST   -Y,R0
0001fd 921a      	ST   -Y,R1
0001fe 92fa      	ST   -Y,R15
0001ff 936a      	ST   -Y,R22
000200 937a      	ST   -Y,R23
000201 938a      	ST   -Y,R24
000202 939a      	ST   -Y,R25
000203 93aa      	ST   -Y,R26
000204 93ba      	ST   -Y,R27
000205 93ea      	ST   -Y,R30
000206 93fa      	ST   -Y,R31
000207 b7ef      	IN   R30,SREG
000208 93ea      	ST   -Y,R30
000209 ede8      	LDI  R30,LOW(216)
00020a bded      	OUT  0x2D,R30
00020b efe0      	LDI  R30,LOW(240)
00020c bdec      	OUT  0x2C,R30
00020d 940e 08e0 	CALL _disk_timerproc
00020f 91e9      	LD   R30,Y+
000210 bfef      	OUT  SREG,R30
000211 91f9      	LD   R31,Y+
000212 91e9      	LD   R30,Y+
000213 91b9      	LD   R27,Y+
000214 91a9      	LD   R26,Y+
000215 9199      	LD   R25,Y+
000216 9189      	LD   R24,Y+
000217 9179      	LD   R23,Y+
000218 9169      	LD   R22,Y+
000219 90f9      	LD   R15,Y+
00021a 9019      	LD   R1,Y+
00021b 9009      	LD   R0,Y+
00021c 9518      	RETI
                 ; .FEND
                 _error:
                 ; .FSTART _error
00021d 93aa      	ST   -Y,R26
                 ;	res -> Y+0
00021e 81a8      	LD   R26,Y
00021f 30a1      	CPI  R26,LOW(0x1)
000220 f010      	BRLO _0x6
000221 31a0      	CPI  R26,LOW(0x10)
000222 f008      	BRLO _0x7
                 _0x6:
000223 c01c      	RJMP _0x5
                 _0x7:
                +
000224 e0e1     +LDI R30 , LOW ( 2 * _0x0 + ( 207 ) )
000225 e0f2     +LDI R31 , HIGH ( 2 * _0x0 + ( 207 ) )
                 	__POINTW1FN _0x0,207
000226 93fa      	ST   -Y,R31
000227 93ea      	ST   -Y,R30
000228 81ea      	LDD  R30,Y+2
000229 e8ac      	LDI  R26,LOW(_error_msg*2)
00022a e0b0      	LDI  R27,HIGH(_error_msg*2)
00022b e0f0      	LDI  R31,0
00022c 0fee      	LSL  R30
00022d 1fff      	ROL  R31
00022e 0fea      	ADD  R30,R26
00022f 1ffb      	ADC  R31,R27
000230 940e 1e3a 	CALL __GETW1PF
000232 2766      	CLR  R22
000233 2777      	CLR  R23
000234 940e 1e52 	CALL __PUTPARD1
000236 e084      	LDI  R24,4
000237 940e 1843 	CALL _printf
000239 9626      	ADIW R28,6
00023a 940e 19b7 	CALL SUBOPT_0x0
                +
00023c e0ad     +LDI R26 , LOW ( 2 * _0x0 + ( 219 ) )
00023d e0b2     +LDI R27 , HIGH ( 2 * _0x0 + ( 219 ) )
                 	__POINTW2FN _0x0,219
00023e 940e 18c3 	CALL _lcd_putsf
                 _0x5:
000240 940c 0675 	JMP  _0x210001C
                 ; .FEND
                 _fecha:
                 ; .FSTART _fecha
000242 e3a6      	LDI  R26,LOW(_file)
000243 e0b7      	LDI  R27,HIGH(_file)
000244 940e 1646 	CALL _f_close
000246 2e5e      	MOV  R5,R30
000247 30e0      	CPI  R30,0
000248 f011      	BREQ _0x8
000249 2da5      	MOV  R26,R5
00024a dfd2      	RCALL _error
                 _0x8:
00024b 9508      	RET
                 ; .FEND
                 _monta:
                 ; .FSTART _monta
00024c e0e0      	LDI  R30,LOW(0)
00024d 93ea      	ST   -Y,R30
00024e e0a4      	LDI  R26,LOW(_fat)
00024f e0b5      	LDI  R27,HIGH(_fat)
000250 940e 1290 	CALL _f_mount
000252 2e5e      	MOV  R5,R30
000253 30e0      	CPI  R30,0
000254 f019      	BREQ _0x9
000255 2da5      	MOV  R26,R5
000256 dfc6      	RCALL _error
000257 c00a      	RJMP _0xA
                 _0x9:
000258 940e 19b7 	CALL SUBOPT_0x0
                +
00025a e1ad     +LDI R26 , LOW ( 2 * _0x0 + ( 235 ) )
00025b e0b2     +LDI R27 , HIGH ( 2 * _0x0 + ( 235 ) )
                 	__POINTW2FN _0x0,235
00025c 940e 19bc 	CALL SUBOPT_0x1
                +
00025e e2ae     +LDI R26 , LOW ( 2 * _0x0 + ( 252 ) )
00025f e0b2     +LDI R27 , HIGH ( 2 * _0x0 + ( 252 ) )
                 	__POINTW2FN _0x0,252
000260 940e 18c3 	CALL _lcd_putsf
                 _0xA:
000262 e5a6      	LDI  R26,LOW(_path)
000263 e0b9      	LDI  R27,HIGH(_path)
000264 940e 1656 	CALL _f_unlink
000266 9508      	RET
                 ; .FEND
                 _cria_arquivo:
                 ; .FSTART _cria_arquivo
000267 e3e6      	LDI  R30,LOW(_file)
000268 e0f7      	LDI  R31,HIGH(_file)
000269 93fa      	ST   -Y,R31
00026a 93ea      	ST   -Y,R30
00026b e5e6      	LDI  R30,LOW(_arquivo)
00026c e0fa      	LDI  R31,HIGH(_arquivo)
00026d 93fa      	ST   -Y,R31
00026e 93ea      	ST   -Y,R30
00026f e0aa      	LDI  R26,LOW(10)
000270 940e 12bd 	CALL _f_open
000272 2e5e      	MOV  R5,R30
000273 30e0      	CPI  R30,0
000274 f019      	BREQ _0xB
000275 2da5      	MOV  R26,R5
000276 dfa6      	RCALL _error
000277 c00a      	RJMP _0xC
                 _0xB:
000278 940e 19b7 	CALL SUBOPT_0x0
                +
00027a e3af     +LDI R26 , LOW ( 2 * _0x0 + ( 269 ) )
00027b e0b2     +LDI R27 , HIGH ( 2 * _0x0 + ( 269 ) )
                 	__POINTW2FN _0x0,269
00027c 940e 19bc 	CALL SUBOPT_0x1
                +
00027e e5a0     +LDI R26 , LOW ( 2 * _0x0 + ( 286 ) )
00027f e0b2     +LDI R27 , HIGH ( 2 * _0x0 + ( 286 ) )
                 	__POINTW2FN _0x0,286
000280 940e 18c3 	CALL _lcd_putsf
                 _0xC:
000282 9508      	RET
                 ; .FEND
                 _escreve:
                 ; .FSTART _escreve
000283 e3e6      	LDI  R30,LOW(_file)
000284 e0f7      	LDI  R31,HIGH(_file)
000285 93fa      	ST   -Y,R31
000286 93ea      	ST   -Y,R30
000287 e6e1      	LDI  R30,LOW(_text1)
000288 e0fa      	LDI  R31,HIGH(_text1)
000289 93fa      	ST   -Y,R31
00028a 93ea      	ST   -Y,R30
00028b e2e0      	LDI  R30,LOW(32)
00028c e0f0      	LDI  R31,HIGH(32)
00028d 93fa      	ST   -Y,R31
00028e 93ea      	ST   -Y,R30
00028f e0a6      	LDI  R26,LOW(6)
000290 e0b0      	LDI  R27,HIGH(6)
000291 940e 13ee 	CALL _f_write
000293 2e5e      	MOV  R5,R30
000294 30e0      	CPI  R30,0
000295 f411      	BRNE _0xD
000296 2da5      	MOV  R26,R5
000297 df85      	RCALL _error
                 _0xD:
000298 9508      	RET
                 ; .FEND
                 ;#include <camera.h>
                 _salva_sd:
                 ; .FSTART _salva_sd
000299 93aa      	ST   -Y,R26
00029a 931a      	ST   -Y,R17
00029b 930a      	ST   -Y,R16
                 ;	tam -> Y+2
                 ;	x -> R17
                 ;	i -> R16
00029c e015      	LDI  R17,LOW(5)
00029d e000      	LDI  R16,LOW(0)
                 _0xF:
00029e 81ea      	LDD  R30,Y+2
00029f 170e      	CP   R16,R30
0002a0 f468      	BRSH _0x10
0002a1 2fa0      	MOV  R26,R16
0002a2 e0b0      	LDI  R27,0
0002a3 59af      	SUBI R26,LOW(-_text1)
0002a4 4fb5      	SBCI R27,HIGH(-_text1)
0002a5 2fe1      	MOV  R30,R17
0002a6 e0f0      	LDI  R31,0
0002a7 57ee      	SUBI R30,LOW(-_rx_buffer)
0002a8 4ff5      	SBCI R31,HIGH(-_rx_buffer)
0002a9 81e0      	LD   R30,Z
0002aa 93ec      	ST   X,R30
0002ab 5f0f      	SUBI R16,-1
0002ac 5f1f      	SUBI R17,-1
0002ad cff0      	RJMP _0xF
                 _0x10:
0002ae dfd4      	RCALL _escreve
0002af 8119      	LDD  R17,Y+1
0002b0 8108      	LDD  R16,Y+0
0002b1 9623      	ADIW R28,3
0002b2 9508      	RET
                 ; .FEND
                 _ver_fim:
                 ; .FSTART _ver_fim
0002b3 9722      	SBIW R28,2
                 ;	x -> Y+1
                 ;	retorno -> Y+0
0002b4 e0e1      	LDI  R30,LOW(1)
0002b5 83e8      	ST   Y,R30
0002b6 e2aa      	LDI  R26,LOW(42)
0002b7 d02a      	RCALL _rx_serial
0002b8 e0e0      	LDI  R30,LOW(0)
0002b9 83e9      	STD  Y+1,R30
                 _0x12:
0002ba 81e9      	LDD  R30,Y+1
0002bb e0f0      	LDI  R31,0
                +
0002bc 57e8     +SUBI R30 , LOW ( - _rx_buffer - ( 6 ) )
0002bd 4ff5     +SBCI R31 , HIGH ( - _rx_buffer - ( 6 ) )
                 	__ADDW1MN _rx_buffer,6
0002be 81a0      	LD   R26,Z
0002bf 3faf      	CPI  R26,LOW(0xFF)
0002c0 f471      	BRNE _0x15
0002c1 81e9      	LDD  R30,Y+1
0002c2 e0f0      	LDI  R31,0
                +
0002c3 57e6     +SUBI R30 , LOW ( - _rx_buffer - ( 8 ) )
0002c4 4ff5     +SBCI R31 , HIGH ( - _rx_buffer - ( 8 ) )
                 	__ADDW1MN _rx_buffer,8
0002c5 81a0      	LD   R26,Z
0002c6 3da9      	CPI  R26,LOW(0xD9)
0002c7 f439      	BRNE _0x15
0002c8 81e9      	LDD  R30,Y+1
0002c9 e0f0      	LDI  R31,0
                +
0002ca 57e5     +SUBI R30 , LOW ( - _rx_buffer - ( 9 ) )
0002cb 4ff5     +SBCI R31 , HIGH ( - _rx_buffer - ( 9 ) )
                 	__ADDW1MN _rx_buffer,9
0002cc 81a0      	LD   R26,Z
0002cd 37a6      	CPI  R26,LOW(0x76)
0002ce f009      	BREQ _0x16
                 _0x15:
0002cf c008      	RJMP _0x14
                 _0x16:
0002d0 e0e0      	LDI  R30,LOW(0)
0002d1 83e8      	ST   Y,R30
0002d2 81a9      	LDD  R26,Y+1
0002d3 5fac      	SUBI R26,-LOW(4)
0002d4 dfc4      	RCALL _salva_sd
0002d5 df6c      	RCALL _fecha
0002d6 81e8      	LD   R30,Y
0002d7 c021      	RJMP _0x210001F
                 _0x14:
0002d8 81e9      	LDD  R30,Y+1
0002d9 5fef      	SUBI R30,-LOW(1)
0002da 83e9      	STD  Y+1,R30
0002db 81a9      	LDD  R26,Y+1
0002dc 32a5      	CPI  R26,LOW(0x25)
0002dd f6e1      	BRNE _0x12
0002de e2a1      	LDI  R26,LOW(33)
0002df dfb9      	RCALL _salva_sd
0002e0 81e8      	LD   R30,Y
0002e1 c017      	RJMP _0x210001F
                 ; .FEND
                 _rx_serial:
                 ; .FSTART _rx_serial
0002e2 93aa      	ST   -Y,R26
0002e3 9721      	SBIW R28,1
                 ;	dado_n -> Y+1
                 ;	datax -> Y+0
0002e4 d030      	RCALL _limpa_rx
                 _0x19:
0002e5 940e 16ef 	CALL _getchar
0002e7 83e8      	ST   Y,R30
0002e8 91e0 0acc 	LDS  R30,_inde1
0002ea e0f0      	LDI  R31,0
0002eb 57ee      	SUBI R30,LOW(-_rx_buffer)
0002ec 4ff5      	SBCI R31,HIGH(-_rx_buffer)
0002ed 81a8      	LD   R26,Y
0002ee 83a0      	STD  Z+0,R26
0002ef 91e0 0acc 	LDS  R30,_inde1
0002f1 5fef      	SUBI R30,-LOW(1)
0002f2 93e0 0acc 	STS  _inde1,R30
0002f4 81e9      	LDD  R30,Y+1
0002f5 91a0 0acc 	LDS  R26,_inde1
0002f7 17ea      	CP   R30,R26
0002f8 f761      	BRNE _0x19
                 _0x210001F:
0002f9 9622      	ADIW R28,2
0002fa 9508      	RET
                 ; .FEND
                 _seta_imagem:
                 ; .FSTART _seta_imagem
0002fb eaac      	LDI  R26,LOW(_sizem*2)
0002fc e0b0      	LDI  R27,HIGH(_sizem*2)
0002fd 940e 19c3 	CALL SUBOPT_0x2
0002ff eba6      	LDI  R26,LOW(_size_rx*2)
000300 e0b0      	LDI  R27,HIGH(_size_rx*2)
000301 940e 1958 	CALL _strstrf
000303 9730      	SBIW R30,0
000304 f049      	BREQ _0x1B
000305 940e 19b7 	CALL SUBOPT_0x0
                +
000307 e6a1     +LDI R26 , LOW ( 2 * _0x0 + ( 303 ) )
000308 e0b2     +LDI R27 , HIGH ( 2 * _0x0 + ( 303 ) )
                 	__POINTW2FN _0x0,303
000309 940e 19bc 	CALL SUBOPT_0x1
                +
00030b e7a2     +LDI R26 , LOW ( 2 * _0x0 + ( 320 ) )
00030c e0b2     +LDI R27 , HIGH ( 2 * _0x0 + ( 320 ) )
                 	__POINTW2FN _0x0,320
00030d c004      	RJMP _0x32
                 _0x1B:
00030e 940e 19b7 	CALL SUBOPT_0x0
                +
000310 e8a3     +LDI R26 , LOW ( 2 * _0x0 + ( 337 ) )
000311 e0b2     +LDI R27 , HIGH ( 2 * _0x0 + ( 337 ) )
                 	__POINTW2FN _0x0,337
                 _0x32:
000312 940e 18c3 	CALL _lcd_putsf
000314 9508      	RET
                 ; .FEND
                 _limpa_rx:
                 ; .FSTART _limpa_rx
000315 931a      	ST   -Y,R17
                 ;	i -> R17
000316 e010      	LDI  R17,LOW(0)
                 _0x1E:
000317 3410      	CPI  R17,64
000318 f440      	BRSH _0x1F
000319 2fe1      	MOV  R30,R17
00031a e0f0      	LDI  R31,0
00031b 57ee      	SUBI R30,LOW(-_rx_buffer)
00031c 4ff5      	SBCI R31,HIGH(-_rx_buffer)
00031d e0a0      	LDI  R26,LOW(0)
00031e 83a0      	STD  Z+0,R26
00031f 5f1f      	SUBI R17,-1
000320 cff6      	RJMP _0x1E
                 _0x1F:
000321 e0e0      	LDI  R30,LOW(0)
000322 93e0 0acc 	STS  _inde1,R30
000324 e010      	LDI  R17,LOW(0)
                 _0x21:
000325 3211      	CPI  R17,33
000326 f440      	BRSH _0x22
000327 2fe1      	MOV  R30,R17
000328 e0f0      	LDI  R31,0
000329 59ef      	SUBI R30,LOW(-_text1)
00032a 4ff5      	SBCI R31,HIGH(-_text1)
00032b e0a0      	LDI  R26,LOW(0)
00032c 83a0      	STD  Z+0,R26
00032d 5f1f      	SUBI R17,-1
00032e cff6      	RJMP _0x21
                 _0x22:
00032f 940c 08f4 	JMP  _0x2100019
                 ; .FEND
                 _tira_foto:
                 ; .FSTART _tira_foto
000331 ebac      	LDI  R26,LOW(_take*2)
000332 e0b0      	LDI  R27,HIGH(_take*2)
000333 940e 19c3 	CALL SUBOPT_0x2
000335 eca2      	LDI  R26,LOW(_take_rx*2)
000336 e0b0      	LDI  R27,HIGH(_take_rx*2)
000337 940e 1958 	CALL _strstrf
000339 9730      	SBIW R30,0
00033a f049      	BREQ _0x23
00033b 940e 19b7 	CALL SUBOPT_0x0
                +
00033d e9a1     +LDI R26 , LOW ( 2 * _0x0 + ( 351 ) )
00033e e0b2     +LDI R27 , HIGH ( 2 * _0x0 + ( 351 ) )
                 	__POINTW2FN _0x0,351
00033f 940e 19bc 	CALL SUBOPT_0x1
                +
000341 eaa3     +LDI R26 , LOW ( 2 * _0x0 + ( 369 ) )
000342 e0b2     +LDI R27 , HIGH ( 2 * _0x0 + ( 369 ) )
                 	__POINTW2FN _0x0,369
000343 c004      	RJMP _0x33
                 _0x23:
000344 940e 19b7 	CALL SUBOPT_0x0
                +
000346 eba5     +LDI R26 , LOW ( 2 * _0x0 + ( 387 ) )
000347 e0b2     +LDI R27 , HIGH ( 2 * _0x0 + ( 387 ) )
                 	__POINTW2FN _0x0,387
                 _0x33:
000348 940e 18c3 	CALL _lcd_putsf
00034a 9508      	RET
                 ; .FEND
                 _tx_dado:
                 ; .FSTART _tx_dado
00034b 93ba      	ST   -Y,R27
00034c 93aa      	ST   -Y,R26
00034d 9722      	SBIW R28,2
                 ;	*data -> Y+2
                 ;	i -> Y+1
                 ;	x -> Y+0
00034e 81ea      	LDD  R30,Y+2
00034f 81fb      	LDD  R31,Y+2+1
000350 9004      	LPM  R0,Z
000351 8208      	ST   Y,R0
000352 e0e1      	LDI  R30,LOW(1)
000353 83e9      	STD  Y+1,R30
                 _0x26:
000354 81e8      	LD   R30,Y
000355 e0f0      	LDI  R31,0
000356 9631      	ADIW R30,1
000357 81a9      	LDD  R26,Y+1
000358 e0b0      	LDI  R27,0
000359 17ae      	CP   R26,R30
00035a 07bf      	CPC  R27,R31
00035b f46c      	BRGE _0x27
00035c 81e9      	LDD  R30,Y+1
00035d 81aa      	LDD  R26,Y+2
00035e 81bb      	LDD  R27,Y+2+1
00035f e0f0      	LDI  R31,0
000360 0fea      	ADD  R30,R26
000361 1ffb      	ADC  R31,R27
000362 91a4      	LPM  R26,Z
000363 940e 16f3 	CALL _putchar
000365 81e9      	LDD  R30,Y+1
000366 5fef      	SUBI R30,-LOW(1)
000367 83e9      	STD  Y+1,R30
000368 cfeb      	RJMP _0x26
                 _0x27:
000369 940c 098c 	JMP  _0x2100017
                 ; .FEND
                 _le_tamanho:
                 ; .FSTART _le_tamanho
00036b dfa9      	RCALL _limpa_rx
00036c eca8      	LDI  R26,LOW(_read_f*2)
00036d e0b0      	LDI  R27,HIGH(_read_f*2)
00036e dfdc      	RCALL _tx_dado
00036f e0a9      	LDI  R26,LOW(9)
000370 df71      	RCALL _rx_serial
                +
000371 91b0 0a89+LDS R27 , _rx_buffer + ( 7 )
                 	__GETBRMN 27,_rx_buffer,7
000373 e0a0      	LDI  R26,LOW(0)
                +
000374 91e0 0a8a+LDS R30 , _rx_buffer + ( 8 )
                 	__GETB1MN _rx_buffer,8
000376 e0f0      	LDI  R31,0
000377 0fea      	ADD  R30,R26
000378 1ffb      	ADC  R31,R27
000379 93e0 0acd 	STS  _tamanho,R30
00037b 93f0 0ace 	STS  _tamanho+1,R31
00037d 940e 19b7 	CALL SUBOPT_0x0
                +
00037f eca4     +LDI R26 , LOW ( 2 * _0x0 + ( 402 ) )
000380 e0b2     +LDI R27 , HIGH ( 2 * _0x0 + ( 402 ) )
                 	__POINTW2FN _0x0,402
000381 940e 19bc 	CALL SUBOPT_0x1
000383 91e0 0acd 	LDS  R30,_tamanho
000385 91f0 0ace 	LDS  R31,_tamanho+1
000387 2766      	CLR  R22
000388 2777      	CLR  R23
000389 940e 1e52 	CALL __PUTPARD1
00038b eca2      	LDI  R26,LOW(_matriz)
00038c e0ba      	LDI  R27,HIGH(_matriz)
00038d 940e 196f 	CALL _ltoa
00038f eca2      	LDI  R26,LOW(_matriz)
000390 e0ba      	LDI  R27,HIGH(_matriz)
000391 940e 18b4 	CALL _lcd_puts
                +
000393 eda5     +LDI R26 , LOW ( 2 * _0x0 + ( 419 ) )
000394 e0b2     +LDI R27 , HIGH ( 2 * _0x0 + ( 419 ) )
                 	__POINTW2FN _0x0,419
000395 940e 18c3 	CALL _lcd_putsf
000397 9508      	RET
                 ; .FEND
                 _le_foto:
                 ; .FSTART _le_foto
000398 940e 19cd 	CALL SUBOPT_0x3
00039a 940e 19d6 	CALL SUBOPT_0x4
00039c 940e 1e05 	CALL __DIVD21
00039e 93e0 0ad3 	STS  _MH,R30
0003a0 91e0 0acf 	LDS  R30,_i
0003a2 93e0 0ad4 	STS  _ML,R30
0003a4 e5a6      	LDI  R26,LOW(86)
0003a5 940e 19db 	CALL SUBOPT_0x5
0003a7 e3a2      	LDI  R26,LOW(50)
0003a8 940e 16f3 	CALL _putchar
0003aa e0ac      	LDI  R26,LOW(12)
0003ab 940e 19db 	CALL SUBOPT_0x5
0003ad e0aa      	LDI  R26,LOW(10)
0003ae 940e 19db 	CALL SUBOPT_0x5
0003b0 e0a0      	LDI  R26,LOW(0)
0003b1 940e 16f3 	CALL _putchar
0003b3 91a0 0ad3 	LDS  R26,_MH
0003b5 940e 16f3 	CALL _putchar
0003b7 91a0 0ad4 	LDS  R26,_ML
0003b9 940e 19db 	CALL SUBOPT_0x5
0003bb e0a0      	LDI  R26,LOW(0)
0003bc 940e 19db 	CALL SUBOPT_0x5
0003be e2a0      	LDI  R26,LOW(32)
0003bf 940e 19db 	CALL SUBOPT_0x5
0003c1 e0aa      	LDI  R26,LOW(10)
0003c2 940e 16f3 	CALL _putchar
0003c4 91e0 0acf 	LDS  R30,_i
0003c6 91f0 0ad0 	LDS  R31,_i+1
0003c8 9160 0ad1 	LDS  R22,_i+2
0003ca 9170 0ad2 	LDS  R23,_i+3
                +
0003cc 5ee0     +SUBI R30 , LOW ( - 32 )
0003cd 4fff     +SBCI R31 , HIGH ( - 32 )
0003ce 4f6f     +SBCI R22 , BYTE3 ( - 32 )
0003cf 4f7f     +SBCI R23 , BYTE4 ( - 32 )
                 	__ADDD1N 32
0003d0 93e0 0acf 	STS  _i,R30
0003d2 93f0 0ad0 	STS  _i+1,R31
0003d4 9360 0ad1 	STS  _i+2,R22
0003d6 9370 0ad2 	STS  _i+3,R23
0003d8 9508      	RET
                 ; .FEND
                 _stop_img:
                 ; .FSTART _stop_img
0003d9 ecae      	LDI  R26,LOW(_stop*2)
0003da e0b0      	LDI  R27,HIGH(_stop*2)
0003db 940e 19c3 	CALL SUBOPT_0x2
0003dd eda4      	LDI  R26,LOW(_stop_rx*2)
0003de e0b0      	LDI  R27,HIGH(_stop_rx*2)
0003df 940e 1958 	CALL _strstrf
0003e1 9730      	SBIW R30,0
0003e2 f049      	BREQ _0x28
0003e3 940e 19b7 	CALL SUBOPT_0x0
                +
0003e5 eea1     +LDI R26 , LOW ( 2 * _0x0 + ( 431 ) )
0003e6 e0b2     +LDI R27 , HIGH ( 2 * _0x0 + ( 431 ) )
                 	__POINTW2FN _0x0,431
0003e7 940e 19bc 	CALL SUBOPT_0x1
                +
0003e9 efa1     +LDI R26 , LOW ( 2 * _0x0 + ( 447 ) )
0003ea e0b2     +LDI R27 , HIGH ( 2 * _0x0 + ( 447 ) )
                 	__POINTW2FN _0x0,447
0003eb c004      	RJMP _0x34
                 _0x28:
0003ec 940e 19b7 	CALL SUBOPT_0x0
                +
0003ee e8a3     +LDI R26 , LOW ( 2 * _0x0 + ( 337 ) )
0003ef e0b2     +LDI R27 , HIGH ( 2 * _0x0 + ( 337 ) )
                 	__POINTW2FN _0x0,337
                 _0x34:
0003f0 940e 18c3 	CALL _lcd_putsf
0003f2 9508      	RET
                 ; .FEND
                 ;
                 ;
                 ;void main(void)
                 ; 0000 000A {
                 _main:
                 ; .FSTART _main
                 ; 0000 000B 
                 ; 0000 000C TCCR1A=(0<<COM1A1) | (0<<COM1A0) | (0<<COM1B1) | (0<<COM1B0) | (0<<COM1C1) | (0<<COM1C0) | (0<<WGM11) | (0<<WGM10);
0003f3 e0e0      	LDI  R30,LOW(0)
0003f4 bdef      	OUT  0x2F,R30
                 ; 0000 000D TCCR1B=(0<<ICNC1) | (0<<ICES1) | (0<<WGM13) | (0<<WGM12) | (0<<CS12) | (1<<CS11) | (0<<CS10);
0003f5 e0e2      	LDI  R30,LOW(2)
0003f6 bdee      	OUT  0x2E,R30
                 ; 0000 000E TCNT1H=0xD8;
0003f7 ede8      	LDI  R30,LOW(216)
0003f8 bded      	OUT  0x2D,R30
                 ; 0000 000F TCNT1L=0xF0;
0003f9 efe0      	LDI  R30,LOW(240)
0003fa bdec      	OUT  0x2C,R30
                 ; 0000 0010 TIMSK=1<<TOIE1;
0003fb e0e4      	LDI  R30,LOW(4)
0003fc bfe7      	OUT  0x37,R30
                 ; 0000 0011 PORTC=0x00;
0003fd e0e0      	LDI  R30,LOW(0)
0003fe bbe5      	OUT  0x15,R30
                 ; 0000 0012 DDRC=0xFF;
0003ff efef      	LDI  R30,LOW(255)
000400 bbe4      	OUT  0x14,R30
                 ; 0000 0013 UCSR0A=(0<<RXC0) | (0<<TXC0) | (0<<UDRE0) | (0<<FE0) | (0<<DOR0) | (0<<UPE0) | (0<<U2X0) | (0<<MPCM0);
000401 e0e0      	LDI  R30,LOW(0)
000402 b9eb      	OUT  0xB,R30
                 ; 0000 0014 UCSR0B=(0<<RXCIE0) | (0<<TXCIE0) | (0<<UDRIE0) | (1<<RXEN0) | (1<<TXEN0) | (0<<UCSZ02) | (0<<RXB80) | (0<<TXB80);
000403 e1e8      	LDI  R30,LOW(24)
000404 b9ea      	OUT  0xA,R30
                 ; 0000 0015 UCSR0C=(0<<UMSEL0) | (0<<UPM01) | (0<<UPM00) | (0<<USBS0) | (1<<UCSZ01) | (1<<UCSZ00) | (0<<UCPOL0);
000405 e0e6      	LDI  R30,LOW(6)
000406 93e0 0095 	STS  149,R30
                 ; 0000 0016 UBRR0H=0x00;
000408 e0e0      	LDI  R30,LOW(0)
000409 93e0 0090 	STS  144,R30
                 ; 0000 0017 UBRR0L=0x0C;
00040b e0ec      	LDI  R30,LOW(12)
00040c b9e9      	OUT  0x9,R30
                 ; 0000 0018 inde1=0;
00040d e0e0      	LDI  R30,LOW(0)
00040e 93e0 0acc 	STS  _inde1,R30
                 ; 0000 0019 
                 ; 0000 001A #asm("sei")
000410 9478      	sei
                 ; 0000 001B lcd_init(16);
000411 e1a0      	LDI  R26,LOW(16)
000412 940e 18d6 	CALL _lcd_init
                 ; 0000 001C 
                 ; 0000 001D lcd_putsf ("CAMERA TTL AND  ");
                +
000414 e0a1     +LDI R26 , LOW ( 2 * _0x0 + ( 463 ) )
000415 e0b3     +LDI R27 , HIGH ( 2 * _0x0 + ( 463 ) )
                 	__POINTW2FN _0x0,463
000416 940e 19bc 	CALL SUBOPT_0x1
                 ; 0000 001E lcd_gotoxy(0,1);
                 ; 0000 001F lcd_putsf ("SDCARD ATMEGA128");
                +
000418 e1a2     +LDI R26 , LOW ( 2 * _0x0 + ( 480 ) )
000419 e0b3     +LDI R27 , HIGH ( 2 * _0x0 + ( 480 ) )
                 	__POINTW2FN _0x0,480
00041a 940e 19e0 	CALL SUBOPT_0x6
                 ; 0000 0020 delay_ms(1500);
                 ; 0000 0021 lcd_clear();
00041c 940e 1893 	CALL _lcd_clear
                 ; 0000 0022 lcd_gotoxy(0,0);
00041e 940e 19b7 	CALL SUBOPT_0x0
                 ; 0000 0023 lcd_putsf ("PREPARE SDCARD ");
                +
000420 e2a3     +LDI R26 , LOW ( 2 * _0x0 + ( 497 ) )
000421 e0b3     +LDI R27 , HIGH ( 2 * _0x0 + ( 497 ) )
                 	__POINTW2FN _0x0,497
000422 940e 19e0 	CALL SUBOPT_0x6
                 ; 0000 0024 delay_ms(1500);
                 ; 0000 0025 monta();
000424 de27      	RCALL _monta
                 ; 0000 0026 delay_ms(1500);
000425 edac      	LDI  R26,LOW(1500)
000426 e0b5      	LDI  R27,HIGH(1500)
000427 940e 1d36 	CALL _delay_ms
                 ; 0000 0027 cria_arquivo();
000429 de3d      	RCALL _cria_arquivo
                 ; 0000 0028 delay_ms(1000);
00042a eea8      	LDI  R26,LOW(1000)
00042b e0b3      	LDI  R27,HIGH(1000)
00042c 940e 1d36 	CALL _delay_ms
                 ; 0000 0029 lcd_gotoxy(0,0);
00042e 940e 19b7 	CALL SUBOPT_0x0
                 ; 0000 002A seta_imagem();
000430 deca      	RCALL _seta_imagem
                 ; 0000 002B delay_ms(2000);
000431 eda0      	LDI  R26,LOW(2000)
000432 e0b7      	LDI  R27,HIGH(2000)
000433 940e 1d36 	CALL _delay_ms
                 ; 0000 002C tira_foto();
000435 defb      	RCALL _tira_foto
                 ; 0000 002D delay_ms(4000);
000436 eaa0      	LDI  R26,LOW(4000)
000437 e0bf      	LDI  R27,HIGH(4000)
000438 940e 1d36 	CALL _delay_ms
                 ; 0000 002E le_tamanho();
00043a df30      	RCALL _le_tamanho
                 ; 0000 002F delay_ms(2000);
00043b eda0      	LDI  R26,LOW(2000)
00043c e0b7      	LDI  R27,HIGH(2000)
00043d 940e 1d36 	CALL _delay_ms
                 ; 0000 0030 flg=1;
00043f e0e1      	LDI  R30,LOW(1)
000440 93e0 0ad5 	STS  _flg,R30
                 ; 0000 0031 
                 ; 0000 0032 
                 ; 0000 0033  while (flg)
                 _0x2A:
000442 91e0 0ad5 	LDS  R30,_flg
000444 30e0      	CPI  R30,0
000445 f0a9      	BREQ _0x2C
                 ; 0000 0034 
                 ; 0000 0035        {
                 ; 0000 0036         le_foto();
000446 df51      	RCALL _le_foto
                 ; 0000 0037         flg=ver_fim();
000447 de6b      	RCALL _ver_fim
000448 93e0 0ad5 	STS  _flg,R30
                 ; 0000 0038         if(i>=tamanho+32)
00044a 91e0 0acd 	LDS  R30,_tamanho
00044c 91f0 0ace 	LDS  R31,_tamanho+1
00044e 96b0      	ADIW R30,32
00044f 940e 19cd 	CALL SUBOPT_0x3
000451 2766      	CLR  R22
000452 2777      	CLR  R23
000453 940e 1e78 	CALL __CPD21
000455 f024      	BRLT _0x2D
                 ; 0000 0039         {
                 ; 0000 003A          flg=0;
000456 e0e0      	LDI  R30,LOW(0)
000457 93e0 0ad5 	STS  _flg,R30
                 ; 0000 003B          fecha();       // close file
000459 dde8      	RCALL _fecha
                 ; 0000 003C          }
                 ; 0000 003D        };
                 _0x2D:
00045a cfe7      	RJMP _0x2A
                 _0x2C:
                 ; 0000 003E 
                 ; 0000 003F        stop_img();
00045b df7d      	RCALL _stop_img
                 ; 0000 0040    while (1);
                 _0x2E:
00045c cfff      	RJMP _0x2E
                 ; 0000 0041 }
                 _0x31:
00045d cfff      	RJMP _0x31
                 ; .FEND
                 	#ifndef __SLEEP_DEFINED__
                 	#endif
                 
                 	.DSEG
                 
                 	.CSEG
                 _crc7_G100:
                 ; .FSTART _crc7_G100
00045e 93aa      	ST   -Y,R26
00045f 940e 1e7f 	CALL __SAVELOCR4
000461 e020      	LDI  R18,LOW(0)
000462 810c      	LDD  R16,Y+4
                 _0x2000005:
000463 81ad      	LDD  R26,Y+5
000464 81be      	LDD  R27,Y+5+1
000465 913d      	LD   R19,X+
000466 83ad      	STD  Y+5,R26
000467 83be      	STD  Y+5+1,R27
000468 e018      	LDI  R17,LOW(8)
                 _0x2000008:
000469 0f22      	LSL  R18
00046a 2fe2      	MOV  R30,R18
00046b 27e3      	EOR  R30,R19
00046c 78e0      	ANDI R30,LOW(0x80)
00046d f011      	BREQ _0x200000A
00046e e0e9      	LDI  R30,LOW(9)
00046f 272e      	EOR  R18,R30
                 _0x200000A:
000470 0f33      	LSL  R19
000471 5011      	SUBI R17,LOW(1)
000472 f7b1      	BRNE _0x2000008
000473 5001      	SUBI R16,LOW(1)
000474 f771      	BRNE _0x2000005
000475 2fe2      	MOV  R30,R18
000476 0fee      	LSL  R30
000477 60e1      	ORI  R30,1
000478 940e 1e86 	CALL __LOADLOCR4
00047a c4fa      	RJMP _0x2100018
                 ; .FEND
                 _wait_ready_G100:
                 ; .FSTART _wait_ready_G100
00047b 931a      	ST   -Y,R17
00047c e3e2      	LDI  R30,LOW(50)
00047d 93e0 0ad8 	STS  _timer2_G100,R30
00047f efef      	LDI  R30,LOW(255)
000480 b9ef      	OUT  0xF,R30
                 _0x200000B:
000481 9b77      	SBIS 0xE,7
000482 cffe      	RJMP _0x200000B
                 _0x200000F:
000483 efef      	LDI  R30,LOW(255)
000484 b9ef      	OUT  0xF,R30
                 _0x2000011:
000485 9b77      	SBIS 0xE,7
000486 cffe      	RJMP _0x2000011
000487 b11f      	IN   R17,15
000488 3f1f      	CPI  R17,255
000489 f021      	BREQ _0x2000014
00048a 91e0 0ad8 	LDS  R30,_timer2_G100
00048c 30e0      	CPI  R30,0
00048d f409      	BRNE _0x2000015
                 _0x2000014:
00048e c001      	RJMP _0x2000010
                 _0x2000015:
00048f cff3      	RJMP _0x200000F
                 _0x2000010:
000490 2fe1      	MOV  R30,R17
000491 c462      	RJMP _0x2100019
                 ; .FEND
                 _deselect_card_G100:
                 ; .FSTART _deselect_card_G100
000492 9ac0      	SBI  0x18,0
000493 efef      	LDI  R30,LOW(255)
000494 b9ef      	OUT  0xF,R30
                 _0x2000016:
000495 9b77      	SBIS 0xE,7
000496 cffe      	RJMP _0x2000016
000497 9508      	RET
                 ; .FEND
                 _rx_datablock_G100:
                 ; .FSTART _rx_datablock_G100
000498 93ba      	ST   -Y,R27
000499 93aa      	ST   -Y,R26
00049a 940e 1e7f 	CALL __SAVELOCR4
00049c e1e4      	LDI  R30,LOW(20)
00049d 93e0 0ad7 	STS  _timer1_G100,R30
                 _0x200001A:
00049f efef      	LDI  R30,LOW(255)
0004a0 b9ef      	OUT  0xF,R30
                 _0x200001C:
0004a1 9b77      	SBIS 0xE,7
0004a2 cffe      	RJMP _0x200001C
0004a3 b11f      	IN   R17,15
0004a4 3f1f      	CPI  R17,255
0004a5 f421      	BRNE _0x200001F
0004a6 91e0 0ad7 	LDS  R30,_timer1_G100
0004a8 30e0      	CPI  R30,0
0004a9 f409      	BRNE _0x2000020
                 _0x200001F:
0004aa c001      	RJMP _0x200001B
                 _0x2000020:
0004ab cff3      	RJMP _0x200001A
                 _0x200001B:
0004ac 3f1e      	CPI  R17,254
0004ad f021      	BREQ _0x2000021
0004ae e0e0      	LDI  R30,LOW(0)
0004af 940e 1e86 	CALL __LOADLOCR4
0004b1 c29e      	RJMP _0x210001B
                 _0x2000021:
                +
0004b2 812e     +LDD R18 , Y + 6
0004b3 813f     +LDD R19 , Y + 6 + 1
                 	__GETWRS 18,19,6
                 _0x2000023:
0004b4 efef      	LDI  R30,LOW(255)
0004b5 b9ef      	OUT  0xF,R30
                 _0x2000025:
0004b6 9b77      	SBIS 0xE,7
0004b7 cffe      	RJMP _0x2000025
0004b8 933f      	PUSH R19
0004b9 932f      	PUSH R18
                +
0004ba 5f2f     +SUBI R18 , LOW ( - 1 )
0004bb 4f3f     +SBCI R19 , HIGH ( - 1 )
                 	__ADDWRN 18,19,1
0004bc b1ef      	IN   R30,0xF
0004bd 91af      	POP  R26
0004be 91bf      	POP  R27
0004bf 93ec      	ST   X,R30
0004c0 efef      	LDI  R30,LOW(255)
0004c1 b9ef      	OUT  0xF,R30
                 _0x2000028:
0004c2 9b77      	SBIS 0xE,7
0004c3 cffe      	RJMP _0x2000028
0004c4 933f      	PUSH R19
0004c5 932f      	PUSH R18
                +
0004c6 5f2f     +SUBI R18 , LOW ( - 1 )
0004c7 4f3f     +SBCI R19 , HIGH ( - 1 )
                 	__ADDWRN 18,19,1
0004c8 b1ef      	IN   R30,0xF
0004c9 91af      	POP  R26
0004ca 91bf      	POP  R27
0004cb 93ec      	ST   X,R30
0004cc efef      	LDI  R30,LOW(255)
0004cd b9ef      	OUT  0xF,R30
                 _0x200002B:
0004ce 9b77      	SBIS 0xE,7
0004cf cffe      	RJMP _0x200002B
0004d0 933f      	PUSH R19
0004d1 932f      	PUSH R18
                +
0004d2 5f2f     +SUBI R18 , LOW ( - 1 )
0004d3 4f3f     +SBCI R19 , HIGH ( - 1 )
                 	__ADDWRN 18,19,1
0004d4 b1ef      	IN   R30,0xF
0004d5 91af      	POP  R26
0004d6 91bf      	POP  R27
0004d7 93ec      	ST   X,R30
0004d8 efef      	LDI  R30,LOW(255)
0004d9 b9ef      	OUT  0xF,R30
                 _0x200002E:
0004da 9b77      	SBIS 0xE,7
0004db cffe      	RJMP _0x200002E
0004dc 933f      	PUSH R19
0004dd 932f      	PUSH R18
                +
0004de 5f2f     +SUBI R18 , LOW ( - 1 )
0004df 4f3f     +SBCI R19 , HIGH ( - 1 )
                 	__ADDWRN 18,19,1
0004e0 b1ef      	IN   R30,0xF
0004e1 91af      	POP  R26
0004e2 91bf      	POP  R27
0004e3 93ec      	ST   X,R30
0004e4 81ec      	LDD  R30,Y+4
0004e5 81fd      	LDD  R31,Y+4+1
0004e6 9734      	SBIW R30,4
0004e7 83ec      	STD  Y+4,R30
0004e8 83fd      	STD  Y+4+1,R31
0004e9 f651      	BRNE _0x2000023
0004ea efef      	LDI  R30,LOW(255)
0004eb b9ef      	OUT  0xF,R30
                 _0x2000031:
0004ec 9b77      	SBIS 0xE,7
0004ed cffe      	RJMP _0x2000031
0004ee efef      	LDI  R30,LOW(255)
0004ef b9ef      	OUT  0xF,R30
                 _0x2000034:
0004f0 9b77      	SBIS 0xE,7
0004f1 cffe      	RJMP _0x2000034
0004f2 e0e1      	LDI  R30,LOW(1)
0004f3 940e 1e86 	CALL __LOADLOCR4
0004f5 c25a      	RJMP _0x210001B
                 ; .FEND
                 _tx_datablock_G100:
                 ; .FSTART _tx_datablock_G100
0004f6 93aa      	ST   -Y,R26
0004f7 940e 1e7f 	CALL __SAVELOCR4
0004f9 df81      	RCALL _wait_ready_G100
0004fa 3fef      	CPI  R30,LOW(0xFF)
0004fb f021      	BREQ _0x2000037
0004fc e0e0      	LDI  R30,LOW(0)
0004fd 940e 1e86 	CALL __LOADLOCR4
0004ff c475      	RJMP _0x2100018
                 _0x2000037:
000500 81ec      	LDD  R30,Y+4
000501 b9ef      	OUT  0xF,R30
                 _0x2000038:
000502 9b77      	SBIS 0xE,7
000503 cffe      	RJMP _0x2000038
000504 81ac      	LDD  R26,Y+4
000505 3fad      	CPI  R26,LOW(0xFD)
000506 f141      	BREQ _0x200003B
000507 e000      	LDI  R16,LOW(0)
                +
000508 812d     +LDD R18 , Y + 5
000509 813e     +LDD R19 , Y + 5 + 1
                 	__GETWRS 18,19,5
                 _0x200003D:
00050a 01d9      	MOVW R26,R18
                +
00050b 5f2f     +SUBI R18 , LOW ( - 1 )
00050c 4f3f     +SBCI R19 , HIGH ( - 1 )
                 	__ADDWRN 18,19,1
00050d 91ec      	LD   R30,X
00050e b9ef      	OUT  0xF,R30
                 _0x200003F:
00050f 9b77      	SBIS 0xE,7
000510 cffe      	RJMP _0x200003F
000511 01d9      	MOVW R26,R18
                +
000512 5f2f     +SUBI R18 , LOW ( - 1 )
000513 4f3f     +SBCI R19 , HIGH ( - 1 )
                 	__ADDWRN 18,19,1
000514 91ec      	LD   R30,X
000515 b9ef      	OUT  0xF,R30
                 _0x2000042:
000516 9b77      	SBIS 0xE,7
000517 cffe      	RJMP _0x2000042
000518 5001      	SUBI R16,LOW(1)
000519 f781      	BRNE _0x200003D
00051a efef      	LDI  R30,LOW(255)
00051b b9ef      	OUT  0xF,R30
                 _0x2000045:
00051c 9b77      	SBIS 0xE,7
00051d cffe      	RJMP _0x2000045
00051e efef      	LDI  R30,LOW(255)
00051f b9ef      	OUT  0xF,R30
                 _0x2000048:
000520 9b77      	SBIS 0xE,7
000521 cffe      	RJMP _0x2000048
000522 efef      	LDI  R30,LOW(255)
000523 b9ef      	OUT  0xF,R30
                 _0x200004B:
000524 9b77      	SBIS 0xE,7
000525 cffe      	RJMP _0x200004B
000526 b11f      	IN   R17,15
000527 2fe1      	MOV  R30,R17
000528 71ef      	ANDI R30,LOW(0x1F)
000529 30e5      	CPI  R30,LOW(0x5)
00052a f021      	BREQ _0x200004E
00052b e0e0      	LDI  R30,LOW(0)
00052c 940e 1e86 	CALL __LOADLOCR4
00052e c446      	RJMP _0x2100018
                 _0x200004E:
                 _0x200003B:
00052f e0e1      	LDI  R30,LOW(1)
000530 940e 1e86 	CALL __LOADLOCR4
000532 c442      	RJMP _0x2100018
                 ; .FEND
                 _send_cmd_G100:
                 ; .FSTART _send_cmd_G100
000533 940e 1e57 	CALL __PUTPARD2
000535 931a      	ST   -Y,R17
000536 930a      	ST   -Y,R16
000537 81ee      	LDD  R30,Y+6
000538 78e0      	ANDI R30,LOW(0x80)
000539 f081      	BREQ _0x200004F
00053a 81ee      	LDD  R30,Y+6
00053b 77ef      	ANDI R30,0x7F
00053c 83ee      	STD  Y+6,R30
00053d e7e7      	LDI  R30,LOW(119)
00053e 93ea      	ST   -Y,R30
                +
00053f e0a0     +LDI R26 , LOW ( 0x0 )
000540 e0b0     +LDI R27 , HIGH ( 0x0 )
000541 e080     +LDI R24 , BYTE3 ( 0x0 )
000542 e090     +LDI R25 , BYTE4 ( 0x0 )
                 	__GETD2N 0x0
000543 dfef      	RCALL _send_cmd_G100
000544 2f0e      	MOV  R16,R30
000545 3002      	CPI  R16,2
000546 f018      	BRLO _0x2000050
000547 8119      	LDD  R17,Y+1
000548 8108      	LDD  R16,Y+0
000549 c42b      	RJMP _0x2100018
                 _0x2000050:
                 _0x200004F:
00054a 81ae      	LDD  R26,Y+6
00054b 34ac      	CPI  R26,LOW(0x4C)
00054c f049      	BREQ _0x2000051
00054d df44      	RCALL _deselect_card_G100
00054e 98c0      	CBI  0x18,0
00054f df2b      	RCALL _wait_ready_G100
000550 3fef      	CPI  R30,LOW(0xFF)
000551 f021      	BREQ _0x2000052
000552 efef      	LDI  R30,LOW(255)
000553 8119      	LDD  R17,Y+1
000554 8108      	LDD  R16,Y+0
000555 c41f      	RJMP _0x2100018
                 _0x2000052:
                 _0x2000051:
000556 81ee      	LDD  R30,Y+6
000557 b9ef      	OUT  0xF,R30
                 _0x2000053:
000558 9b77      	SBIS 0xE,7
000559 cffe      	RJMP _0x2000053
00055a 81ed      	LDD  R30,Y+5
00055b b9ef      	OUT  0xF,R30
                 _0x2000056:
00055c 9b77      	SBIS 0xE,7
00055d cffe      	RJMP _0x2000056
00055e 81ec      	LDD  R30,Y+4
00055f b9ef      	OUT  0xF,R30
                 _0x2000059:
000560 9b77      	SBIS 0xE,7
000561 cffe      	RJMP _0x2000059
000562 81eb      	LDD  R30,Y+3
000563 b9ef      	OUT  0xF,R30
                 _0x200005C:
000564 9b77      	SBIS 0xE,7
000565 cffe      	RJMP _0x200005C
000566 81ea      	LDD  R30,Y+2
000567 b9ef      	OUT  0xF,R30
                 _0x200005F:
000568 9b77      	SBIS 0xE,7
000569 cffe      	RJMP _0x200005F
00056a e011      	LDI  R17,LOW(1)
00056b 81ae      	LDD  R26,Y+6
00056c 34a0      	CPI  R26,LOW(0x40)
00056d f411      	BRNE _0x2000062
00056e e915      	LDI  R17,LOW(149)
00056f c004      	RJMP _0x2000063
                 _0x2000062:
000570 81ae      	LDD  R26,Y+6
000571 34a8      	CPI  R26,LOW(0x48)
000572 f409      	BRNE _0x2000064
000573 e817      	LDI  R17,LOW(135)
                 _0x2000064:
                 _0x2000063:
000574 b91f      	OUT  0xF,R17
                 _0x2000065:
000575 9b77      	SBIS 0xE,7
000576 cffe      	RJMP _0x2000065
000577 81ae      	LDD  R26,Y+6
000578 34ac      	CPI  R26,LOW(0x4C)
000579 f421      	BRNE _0x2000068
00057a efef      	LDI  R30,LOW(255)
00057b b9ef      	OUT  0xF,R30
                 _0x2000069:
00057c 9b77      	SBIS 0xE,7
00057d cffe      	RJMP _0x2000069
                 _0x2000068:
00057e ef1f      	LDI  R17,LOW(255)
                 _0x200006D:
00057f efef      	LDI  R30,LOW(255)
000580 b9ef      	OUT  0xF,R30
                 _0x200006F:
000581 9b77      	SBIS 0xE,7
000582 cffe      	RJMP _0x200006F
000583 b10f      	IN   R16,15
000584 ff07      	SBRS R16,7
000585 c002      	RJMP _0x2000072
000586 5011      	SUBI R17,LOW(1)
000587 f409      	BRNE _0x2000073
                 _0x2000072:
000588 c001      	RJMP _0x200006E
                 _0x2000073:
000589 cff5      	RJMP _0x200006D
                 _0x200006E:
00058a 2fe0      	MOV  R30,R16
00058b 8119      	LDD  R17,Y+1
00058c 8108      	LDD  R16,Y+0
00058d c3e7      	RJMP _0x2100018
                 ; .FEND
                 _rx_spi4_G100:
                 ; .FSTART _rx_spi4_G100
00058e 93ba      	ST   -Y,R27
00058f 93aa      	ST   -Y,R26
000590 931a      	ST   -Y,R17
000591 e014      	LDI  R17,4
                 _0x2000075:
000592 efef      	LDI  R30,LOW(255)
000593 b9ef      	OUT  0xF,R30
                 _0x2000077:
000594 9b77      	SBIS 0xE,7
000595 cffe      	RJMP _0x2000077
000596 81a9      	LDD  R26,Y+1
000597 81ba      	LDD  R27,Y+1+1
000598 9611      	ADIW R26,1
000599 83a9      	STD  Y+1,R26
00059a 83ba      	STD  Y+1+1,R27
00059b 9711      	SBIW R26,1
00059c b1ef      	IN   R30,0xF
00059d 93ec      	ST   X,R30
00059e 5011      	SUBI R17,LOW(1)
00059f f791      	BRNE _0x2000075
0005a0 c4b9      	RJMP _0x2100015
                 ; .FEND
                 _disk_initialize:
                 ; .FSTART _disk_initialize
0005a1 93aa      	ST   -Y,R26
0005a2 9724      	SBIW R28,4
0005a3 940e 1e7f 	CALL __SAVELOCR4
0005a5 85e8      	LDD  R30,Y+8
0005a6 30e0      	CPI  R30,0
0005a7 f011      	BREQ _0x200007A
0005a8 e0e1      	LDI  R30,LOW(1)
0005a9 c0bf      	RJMP _0x210001E
                 _0x200007A:
0005aa e0ea      	LDI  R30,LOW(10)
0005ab 93e0 0ad7 	STS  _timer1_G100,R30
                 _0x200007B:
0005ad 91e0 0ad7 	LDS  R30,_timer1_G100
0005af 30e0      	CPI  R30,0
0005b0 f7e1      	BRNE _0x200007B
0005b1 91e0 0ad6 	LDS  R30,_status_G100
0005b3 70e2      	ANDI R30,LOW(0x2)
0005b4 f009      	BREQ _0x200007E
0005b5 c0b1      	RJMP _0x210001D
                 _0x200007E:
0005b6 9ab8      	SBI  0x17,0
0005b7 9ac0      	SBI  0x18,0
0005b8 b3e8      	IN   R30,0x18
0005b9 7fe9      	ANDI R30,LOW(0xF9)
0005ba bbe8      	OUT  0x18,R30
0005bb 9ac3      	SBI  0x18,3
0005bc 98bb      	CBI  0x17,3
0005bd b3e7      	IN   R30,0x17
0005be 60e7      	ORI  R30,LOW(0x7)
0005bf bbe7      	OUT  0x17,R30
0005c0 e5e2      	LDI  R30,LOW(82)
0005c1 b9ed      	OUT  0xD,R30
0005c2 e0e0      	LDI  R30,LOW(0)
0005c3 b9ee      	OUT  0xE,R30
0005c4 ef3f      	LDI  R19,LOW(255)
                 _0x2000080:
0005c5 e01a      	LDI  R17,LOW(10)
                 _0x2000083:
0005c6 efef      	LDI  R30,LOW(255)
0005c7 b9ef      	OUT  0xF,R30
                 _0x2000085:
0005c8 9b77      	SBIS 0xE,7
0005c9 cffe      	RJMP _0x2000085
0005ca 5011      	SUBI R17,LOW(1)
0005cb f7d1      	BRNE _0x2000083
0005cc e4e0      	LDI  R30,LOW(64)
0005cd 93ea      	ST   -Y,R30
                +
0005ce e0a0     +LDI R26 , LOW ( 0x0 )
0005cf e0b0     +LDI R27 , HIGH ( 0x0 )
0005d0 e080     +LDI R24 , BYTE3 ( 0x0 )
0005d1 e090     +LDI R25 , BYTE4 ( 0x0 )
                 	__GETD2N 0x0
0005d2 df60      	RCALL _send_cmd_G100
0005d3 2f0e      	MOV  R16,R30
0005d4 5031      	SUBI R19,LOW(1)
0005d5 3001      	CPI  R16,1
0005d6 f011      	BREQ _0x2000088
0005d7 3030      	CPI  R19,0
0005d8 f409      	BRNE _0x2000089
                 _0x2000088:
0005d9 c001      	RJMP _0x2000081
                 _0x2000089:
0005da cfea      	RJMP _0x2000080
                 _0x2000081:
0005db e030      	LDI  R19,LOW(0)
0005dc 3001      	CPI  R16,1
0005dd f009      	BREQ PC+2
0005de c068      	RJMP _0x200008A
0005df e6e4      	LDI  R30,LOW(100)
0005e0 93e0 0ad7 	STS  _timer1_G100,R30
0005e2 e4e8      	LDI  R30,LOW(72)
0005e3 93ea      	ST   -Y,R30
                +
0005e4 eaaa     +LDI R26 , LOW ( 0x1AA )
0005e5 e0b1     +LDI R27 , HIGH ( 0x1AA )
0005e6 e080     +LDI R24 , BYTE3 ( 0x1AA )
0005e7 e090     +LDI R25 , BYTE4 ( 0x1AA )
                 	__GETD2N 0x1AA
0005e8 df4a      	RCALL _send_cmd_G100
0005e9 30e1      	CPI  R30,LOW(0x1)
0005ea f591      	BRNE _0x200008B
0005eb 01de      	MOVW R26,R28
0005ec 9614      	ADIW R26,4
0005ed dfa0      	RCALL _rx_spi4_G100
0005ee 81ae      	LDD  R26,Y+6
0005ef 30a1      	CPI  R26,LOW(0x1)
0005f0 f419      	BRNE _0x200008D
0005f1 81af      	LDD  R26,Y+7
0005f2 3aaa      	CPI  R26,LOW(0xAA)
0005f3 f009      	BREQ _0x200008E
                 _0x200008D:
0005f4 c027      	RJMP _0x200008C
                 _0x200008E:
                 _0x200008F:
0005f5 91e0 0ad7 	LDS  R30,_timer1_G100
0005f7 30e0      	CPI  R30,0
0005f8 f049      	BREQ _0x2000092
0005f9 eee9      	LDI  R30,LOW(233)
0005fa 93ea      	ST   -Y,R30
                +
0005fb e0a0     +LDI R26 , LOW ( 0x40000000 )
0005fc e0b0     +LDI R27 , HIGH ( 0x40000000 )
0005fd e080     +LDI R24 , BYTE3 ( 0x40000000 )
0005fe e490     +LDI R25 , BYTE4 ( 0x40000000 )
                 	__GETD2N 0x40000000
0005ff df33      	RCALL _send_cmd_G100
000600 30e0      	CPI  R30,0
000601 f409      	BRNE _0x2000093
                 _0x2000092:
000602 c001      	RJMP _0x2000091
                 _0x2000093:
000603 cff1      	RJMP _0x200008F
                 _0x2000091:
000604 91e0 0ad7 	LDS  R30,_timer1_G100
000606 30e0      	CPI  R30,0
000607 f049      	BREQ _0x2000095
000608 e7ea      	LDI  R30,LOW(122)
000609 93ea      	ST   -Y,R30
                +
00060a e0a0     +LDI R26 , LOW ( 0x0 )
00060b e0b0     +LDI R27 , HIGH ( 0x0 )
00060c e080     +LDI R24 , BYTE3 ( 0x0 )
00060d e090     +LDI R25 , BYTE4 ( 0x0 )
                 	__GETD2N 0x0
00060e df24      	RCALL _send_cmd_G100
00060f 30e0      	CPI  R30,0
000610 f009      	BREQ _0x2000096
                 _0x2000095:
000611 c00a      	RJMP _0x2000094
                 _0x2000096:
000612 01de      	MOVW R26,R28
000613 9614      	ADIW R26,4
000614 df79      	RCALL _rx_spi4_G100
000615 81ec      	LDD  R30,Y+4
000616 74e0      	ANDI R30,LOW(0x40)
000617 f011      	BREQ _0x2000097
000618 e0ec      	LDI  R30,LOW(12)
000619 c001      	RJMP _0x2000098
                 _0x2000097:
00061a e0e4      	LDI  R30,LOW(4)
                 _0x2000098:
00061b 2f3e      	MOV  R19,R30
                 _0x2000094:
                 _0x200008C:
00061c c02a      	RJMP _0x200009A
                 _0x200008B:
00061d eee9      	LDI  R30,LOW(233)
00061e 93ea      	ST   -Y,R30
                +
00061f e0a0     +LDI R26 , LOW ( 0x0 )
000620 e0b0     +LDI R27 , HIGH ( 0x0 )
000621 e080     +LDI R24 , BYTE3 ( 0x0 )
000622 e090     +LDI R25 , BYTE4 ( 0x0 )
                 	__GETD2N 0x0
000623 df0f      	RCALL _send_cmd_G100
000624 30e2      	CPI  R30,LOW(0x2)
000625 f418      	BRSH _0x200009B
000626 e032      	LDI  R19,LOW(2)
000627 ee09      	LDI  R16,LOW(233)
000628 c002      	RJMP _0x200009C
                 _0x200009B:
000629 e031      	LDI  R19,LOW(1)
00062a e401      	LDI  R16,LOW(65)
                 _0x200009C:
                 _0x200009D:
00062b 91e0 0ad7 	LDS  R30,_timer1_G100
00062d 30e0      	CPI  R30,0
00062e f041      	BREQ _0x20000A0
00062f 930a      	ST   -Y,R16
                +
000630 e0a0     +LDI R26 , LOW ( 0x0 )
000631 e0b0     +LDI R27 , HIGH ( 0x0 )
000632 e080     +LDI R24 , BYTE3 ( 0x0 )
000633 e090     +LDI R25 , BYTE4 ( 0x0 )
                 	__GETD2N 0x0
000634 defe      	RCALL _send_cmd_G100
000635 30e0      	CPI  R30,0
000636 f409      	BRNE _0x20000A1
                 _0x20000A0:
000637 c001      	RJMP _0x200009F
                 _0x20000A1:
000638 cff2      	RJMP _0x200009D
                 _0x200009F:
000639 91e0 0ad7 	LDS  R30,_timer1_G100
00063b 30e0      	CPI  R30,0
00063c f049      	BREQ _0x20000A3
00063d e5e0      	LDI  R30,LOW(80)
00063e 93ea      	ST   -Y,R30
                +
00063f e0a0     +LDI R26 , LOW ( 0x200 )
000640 e0b2     +LDI R27 , HIGH ( 0x200 )
000641 e080     +LDI R24 , BYTE3 ( 0x200 )
000642 e090     +LDI R25 , BYTE4 ( 0x200 )
                 	__GETD2N 0x200
000643 deef      	RCALL _send_cmd_G100
000644 30e0      	CPI  R30,0
000645 f009      	BREQ _0x20000A2
                 _0x20000A3:
000646 e030      	LDI  R19,LOW(0)
                 _0x20000A2:
                 _0x200009A:
                 _0x200008A:
000647 9330 0ad9 	STS  _card_type_G100,R19
000649 de48      	RCALL _deselect_card_G100
00064a 3030      	CPI  R19,0
00064b f051      	BREQ _0x20000A5
00064c 91e0 0ad6 	LDS  R30,_status_G100
00064e 7fee      	ANDI R30,0xFE
00064f 93e0 0ad6 	STS  _status_G100,R30
000651 e5e0      	LDI  R30,LOW(80)
000652 b9ed      	OUT  0xD,R30
000653 e0e1      	LDI  R30,LOW(1)
000654 b9ee      	OUT  0xE,R30
000655 c011      	RJMP _0x20000A6
                 _0x20000A5:
000656 98c0      	CBI  0x18,0
000657 de23      	RCALL _wait_ready_G100
000658 de39      	RCALL _deselect_card_G100
000659 e0e0      	LDI  R30,LOW(0)
00065a b9ed      	OUT  0xD,R30
00065b b3e7      	IN   R30,0x17
00065c 7fe0      	ANDI R30,LOW(0xF0)
00065d bbe7      	OUT  0x17,R30
00065e b3e8      	IN   R30,0x18
00065f 7fe0      	ANDI R30,LOW(0xF0)
000660 bbe8      	OUT  0x18,R30
000661 98b8      	CBI  0x17,0
000662 91e0 0ad6 	LDS  R30,_status_G100
000664 60e1      	ORI  R30,1
000665 93e0 0ad6 	STS  _status_G100,R30
                 _0x20000A6:
                 _0x210001D:
000667 91e0 0ad6 	LDS  R30,_status_G100
                 _0x210001E:
000669 940e 1e86 	CALL __LOADLOCR4
00066b 9629      	ADIW R28,9
00066c 9508      	RET
                 ; .FEND
                 _disk_status:
                 ; .FSTART _disk_status
00066d 93aa      	ST   -Y,R26
00066e 81e8      	LD   R30,Y
00066f 30e0      	CPI  R30,0
000670 f011      	BREQ _0x20000A7
000671 e0e1      	LDI  R30,LOW(1)
000672 c002      	RJMP _0x210001C
                 _0x20000A7:
000673 91e0 0ad6 	LDS  R30,_status_G100
                 _0x210001C:
000675 9621      	ADIW R28,1
000676 9508      	RET
                 ; .FEND
                 _disk_read:
                 ; .FSTART _disk_read
000677 93aa      	ST   -Y,R26
000678 81ef      	LDD  R30,Y+7
000679 30e0      	CPI  R30,0
00067a f419      	BRNE _0x20000A9
00067b 81e8      	LD   R30,Y
00067c 30e0      	CPI  R30,0
00067d f411      	BRNE _0x20000A8
                 _0x20000A9:
00067e e0e4      	LDI  R30,LOW(4)
00067f c0d0      	RJMP _0x210001B
                 _0x20000A8:
000680 91e0 0ad6 	LDS  R30,_status_G100
000682 70e1      	ANDI R30,LOW(0x1)
000683 f011      	BREQ _0x20000AB
000684 e0e3      	LDI  R30,LOW(3)
000685 c0ca      	RJMP _0x210001B
                 _0x20000AB:
000686 91e0 0ad9 	LDS  R30,_card_type_G100
000688 70e8      	ANDI R30,LOW(0x8)
000689 f471      	BRNE _0x20000AC
                +
00068a 81e9     +LDD R30 , Y + 1
00068b 81fa     +LDD R31 , Y + 1 + 1
00068c 816b     +LDD R22 , Y + 1 + 2
00068d 817c     +LDD R23 , Y + 1 + 3
                 	__GETD1S 1
                +
00068e e0a0     +LDI R26 , LOW ( 0x200 )
00068f e0b2     +LDI R27 , HIGH ( 0x200 )
000690 e080     +LDI R24 , BYTE3 ( 0x200 )
000691 e090     +LDI R25 , BYTE4 ( 0x200 )
                 	__GETD2N 0x200
000692 940e 1da7 	CALL __MULD12U
                +
000694 83e9     +STD Y + 1 , R30
000695 83fa     +STD Y + 1 + 1 , R31
000696 836b     +STD Y + 1 + 2 , R22
000697 837c     +STD Y + 1 + 3 , R23
                 	__PUTD1S 1
                 _0x20000AC:
000698 81a8      	LD   R26,Y
000699 30a1      	CPI  R26,LOW(0x1)
00069a f4a9      	BRNE _0x20000AD
00069b e5e1      	LDI  R30,LOW(81)
00069c 93ea      	ST   -Y,R30
                +
00069d 81aa     +LDD R26 , Y + 2
00069e 81bb     +LDD R27 , Y + 2 + 1
00069f 818c     +LDD R24 , Y + 2 + 2
0006a0 819d     +LDD R25 , Y + 2 + 3
                 	__GETD2S 2
0006a1 de91      	RCALL _send_cmd_G100
0006a2 30e0      	CPI  R30,0
0006a3 f459      	BRNE _0x20000AE
0006a4 81ed      	LDD  R30,Y+5
0006a5 81fe      	LDD  R31,Y+5+1
0006a6 93fa      	ST   -Y,R31
0006a7 93ea      	ST   -Y,R30
0006a8 e0a0      	LDI  R26,LOW(512)
0006a9 e0b2      	LDI  R27,HIGH(512)
0006aa dded      	RCALL _rx_datablock_G100
0006ab 30e0      	CPI  R30,0
0006ac f011      	BREQ _0x20000AF
0006ad e0e0      	LDI  R30,LOW(0)
0006ae 83e8      	ST   Y,R30
                 _0x20000AF:
                 _0x20000AE:
0006af c023      	RJMP _0x20000B0
                 _0x20000AD:
0006b0 e5e2      	LDI  R30,LOW(82)
0006b1 93ea      	ST   -Y,R30
                +
0006b2 81aa     +LDD R26 , Y + 2
0006b3 81bb     +LDD R27 , Y + 2 + 1
0006b4 818c     +LDD R24 , Y + 2 + 2
0006b5 819d     +LDD R25 , Y + 2 + 3
                 	__GETD2S 2
0006b6 de7c      	RCALL _send_cmd_G100
0006b7 30e0      	CPI  R30,0
0006b8 f4d1      	BRNE _0x20000B1
                 _0x20000B3:
0006b9 81ed      	LDD  R30,Y+5
0006ba 81fe      	LDD  R31,Y+5+1
0006bb 93fa      	ST   -Y,R31
0006bc 93ea      	ST   -Y,R30
0006bd e0a0      	LDI  R26,LOW(512)
0006be e0b2      	LDI  R27,HIGH(512)
0006bf ddd8      	RCALL _rx_datablock_G100
0006c0 30e0      	CPI  R30,0
0006c1 f051      	BREQ _0x20000B4
0006c2 81ed      	LDD  R30,Y+5
0006c3 81fe      	LDD  R31,Y+5+1
0006c4 50e0      	SUBI R30,LOW(-512)
0006c5 4ffe      	SBCI R31,HIGH(-512)
0006c6 83ed      	STD  Y+5,R30
0006c7 83fe      	STD  Y+5+1,R31
0006c8 81e8      	LD   R30,Y
0006c9 50e1      	SUBI R30,LOW(1)
0006ca 83e8      	ST   Y,R30
0006cb f769      	BRNE _0x20000B3
                 _0x20000B4:
0006cc e4ec      	LDI  R30,LOW(76)
0006cd 93ea      	ST   -Y,R30
                +
0006ce e0a0     +LDI R26 , LOW ( 0x0 )
0006cf e0b0     +LDI R27 , HIGH ( 0x0 )
0006d0 e080     +LDI R24 , BYTE3 ( 0x0 )
0006d1 e090     +LDI R25 , BYTE4 ( 0x0 )
                 	__GETD2N 0x0
0006d2 de60      	RCALL _send_cmd_G100
                 _0x20000B1:
                 _0x20000B0:
0006d3 ddbe      	RCALL _deselect_card_G100
0006d4 81e8      	LD   R30,Y
0006d5 30e0      	CPI  R30,0
0006d6 f011      	BREQ _0x20000B6
0006d7 e0e1      	LDI  R30,LOW(1)
0006d8 c001      	RJMP _0x20000B7
                 _0x20000B6:
0006d9 e0e0      	LDI  R30,LOW(0)
                 _0x20000B7:
0006da c075      	RJMP _0x210001B
                 ; .FEND
                 _disk_write:
                 ; .FSTART _disk_write
0006db 93aa      	ST   -Y,R26
0006dc 81ef      	LDD  R30,Y+7
0006dd 30e0      	CPI  R30,0
0006de f419      	BRNE _0x20000BA
0006df 81e8      	LD   R30,Y
0006e0 30e0      	CPI  R30,0
0006e1 f411      	BRNE _0x20000B9
                 _0x20000BA:
0006e2 e0e4      	LDI  R30,LOW(4)
0006e3 c06c      	RJMP _0x210001B
                 _0x20000B9:
0006e4 91e0 0ad6 	LDS  R30,_status_G100
0006e6 70e1      	ANDI R30,LOW(0x1)
0006e7 f011      	BREQ _0x20000BC
0006e8 e0e3      	LDI  R30,LOW(3)
0006e9 c066      	RJMP _0x210001B
                 _0x20000BC:
0006ea 91e0 0ad6 	LDS  R30,_status_G100
0006ec 70e4      	ANDI R30,LOW(0x4)
0006ed f011      	BREQ _0x20000BD
0006ee e0e2      	LDI  R30,LOW(2)
0006ef c060      	RJMP _0x210001B
                 _0x20000BD:
0006f0 91e0 0ad9 	LDS  R30,_card_type_G100
0006f2 70e8      	ANDI R30,LOW(0x8)
0006f3 f471      	BRNE _0x20000BE
                +
0006f4 81e9     +LDD R30 , Y + 1
0006f5 81fa     +LDD R31 , Y + 1 + 1
0006f6 816b     +LDD R22 , Y + 1 + 2
0006f7 817c     +LDD R23 , Y + 1 + 3
                 	__GETD1S 1
                +
0006f8 e0a0     +LDI R26 , LOW ( 0x200 )
0006f9 e0b2     +LDI R27 , HIGH ( 0x200 )
0006fa e080     +LDI R24 , BYTE3 ( 0x200 )
0006fb e090     +LDI R25 , BYTE4 ( 0x200 )
                 	__GETD2N 0x200
0006fc 940e 1da7 	CALL __MULD12U
                +
0006fe 83e9     +STD Y + 1 , R30
0006ff 83fa     +STD Y + 1 + 1 , R31
000700 836b     +STD Y + 1 + 2 , R22
000701 837c     +STD Y + 1 + 3 , R23
                 	__PUTD1S 1
                 _0x20000BE:
000702 81a8      	LD   R26,Y
000703 30a1      	CPI  R26,LOW(0x1)
000704 f4a1      	BRNE _0x20000BF
000705 e5e8      	LDI  R30,LOW(88)
000706 93ea      	ST   -Y,R30
                +
000707 81aa     +LDD R26 , Y + 2
000708 81bb     +LDD R27 , Y + 2 + 1
000709 818c     +LDD R24 , Y + 2 + 2
00070a 819d     +LDD R25 , Y + 2 + 3
                 	__GETD2S 2
00070b de27      	RCALL _send_cmd_G100
00070c 30e0      	CPI  R30,0
00070d f451      	BRNE _0x20000C0
00070e 81ed      	LDD  R30,Y+5
00070f 81fe      	LDD  R31,Y+5+1
000710 93fa      	ST   -Y,R31
000711 93ea      	ST   -Y,R30
000712 efae      	LDI  R26,LOW(254)
000713 dde2      	RCALL _tx_datablock_G100
000714 30e0      	CPI  R30,0
000715 f011      	BREQ _0x20000C1
000716 e0e0      	LDI  R30,LOW(0)
000717 83e8      	ST   Y,R30
                 _0x20000C1:
                 _0x20000C0:
000718 c030      	RJMP _0x20000C2
                 _0x20000BF:
000719 91e0 0ad9 	LDS  R30,_card_type_G100
00071b 70e6      	ANDI R30,LOW(0x6)
00071c f039      	BREQ _0x20000C3
00071d ede7      	LDI  R30,LOW(215)
00071e 93ea      	ST   -Y,R30
00071f 81a9      	LDD  R26,Y+1
000720 27bb      	CLR  R27
000721 2788      	CLR  R24
000722 2799      	CLR  R25
000723 de0f      	RCALL _send_cmd_G100
                 _0x20000C3:
000724 e5e9      	LDI  R30,LOW(89)
000725 93ea      	ST   -Y,R30
                +
000726 81aa     +LDD R26 , Y + 2
000727 81bb     +LDD R27 , Y + 2 + 1
000728 818c     +LDD R24 , Y + 2 + 2
000729 819d     +LDD R25 , Y + 2 + 3
                 	__GETD2S 2
00072a de08      	RCALL _send_cmd_G100
00072b 30e0      	CPI  R30,0
00072c f4e1      	BRNE _0x20000C4
                 _0x20000C6:
00072d 81ed      	LDD  R30,Y+5
00072e 81fe      	LDD  R31,Y+5+1
00072f 93fa      	ST   -Y,R31
000730 93ea      	ST   -Y,R30
000731 efac      	LDI  R26,LOW(252)
000732 ddc3      	RCALL _tx_datablock_G100
000733 30e0      	CPI  R30,0
000734 f051      	BREQ _0x20000C7
000735 81ed      	LDD  R30,Y+5
000736 81fe      	LDD  R31,Y+5+1
000737 50e0      	SUBI R30,LOW(-512)
000738 4ffe      	SBCI R31,HIGH(-512)
000739 83ed      	STD  Y+5,R30
00073a 83fe      	STD  Y+5+1,R31
00073b 81e8      	LD   R30,Y
00073c 50e1      	SUBI R30,LOW(1)
00073d 83e8      	ST   Y,R30
00073e f771      	BRNE _0x20000C6
                 _0x20000C7:
00073f e0e0      	LDI  R30,LOW(0)
000740 e0f0      	LDI  R31,HIGH(0)
000741 93fa      	ST   -Y,R31
000742 93ea      	ST   -Y,R30
000743 efad      	LDI  R26,LOW(253)
000744 ddb1      	RCALL _tx_datablock_G100
000745 30e0      	CPI  R30,0
000746 f411      	BRNE _0x20000C9
000747 e0e1      	LDI  R30,LOW(1)
000748 83e8      	ST   Y,R30
                 _0x20000C9:
                 _0x20000C4:
                 _0x20000C2:
000749 dd48      	RCALL _deselect_card_G100
00074a 81e8      	LD   R30,Y
00074b 30e0      	CPI  R30,0
00074c f011      	BREQ _0x20000CA
00074d e0e1      	LDI  R30,LOW(1)
00074e c001      	RJMP _0x20000CB
                 _0x20000CA:
00074f e0e0      	LDI  R30,LOW(0)
                 _0x20000CB:
                 _0x210001B:
000750 9628      	ADIW R28,8
000751 9508      	RET
                 ; .FEND
                 _disk_ioctl:
                 ; .FSTART _disk_ioctl
000752 93ba      	ST   -Y,R27
000753 93aa      	ST   -Y,R26
000754 9760      	SBIW R28,16
000755 940e 1e7f 	CALL __SAVELOCR4
000757 89ef      	LDD  R30,Y+23
000758 30e0      	CPI  R30,0
000759 f011      	BREQ _0x20000CD
00075a e0e4      	LDI  R30,LOW(4)
00075b c180      	RJMP _0x210001A
                 _0x20000CD:
00075c 91e0 0ad6 	LDS  R30,_status_G100
00075e 70e1      	ANDI R30,LOW(0x1)
00075f f011      	BREQ _0x20000CE
000760 e0e3      	LDI  R30,LOW(3)
000761 c17a      	RJMP _0x210001A
                 _0x20000CE:
000762 e011      	LDI  R17,LOW(1)
000763 89ee      	LDD  R30,Y+22
000764 30e0      	CPI  R30,0
000765 f431      	BRNE _0x20000D2
000766 98c0      	CBI  0x18,0
000767 dd13      	RCALL _wait_ready_G100
000768 3fef      	CPI  R30,LOW(0xFF)
000769 f409      	BRNE _0x20000D3
00076a e010      	LDI  R17,LOW(0)
                 _0x20000D3:
00076b c16e      	RJMP _0x20000D1
                 _0x20000D2:
00076c 30e1      	CPI  R30,LOW(0x1)
00076d f009      	BREQ PC+2
00076e c05b      	RJMP _0x20000D4
00076f e4e9      	LDI  R30,LOW(73)
000770 93ea      	ST   -Y,R30
                +
000771 e0a0     +LDI R26 , LOW ( 0x0 )
000772 e0b0     +LDI R27 , HIGH ( 0x0 )
000773 e080     +LDI R24 , BYTE3 ( 0x0 )
000774 e090     +LDI R25 , BYTE4 ( 0x0 )
                 	__GETD2N 0x0
000775 ddbd      	RCALL _send_cmd_G100
000776 30e0      	CPI  R30,0
000777 f449      	BRNE _0x20000D6
000778 01fe      	MOVW R30,R28
000779 9634      	ADIW R30,4
00077a 93fa      	ST   -Y,R31
00077b 93ea      	ST   -Y,R30
00077c e1a0      	LDI  R26,LOW(16)
00077d e0b0      	LDI  R27,0
00077e dd19      	RCALL _rx_datablock_G100
00077f 30e0      	CPI  R30,0
000780 f409      	BRNE _0x20000D7
                 _0x20000D6:
000781 c047      	RJMP _0x20000D5
                 _0x20000D7:
000782 81ec      	LDD  R30,Y+4
000783 95e2      	SWAP R30
000784 70ef      	ANDI R30,0xF
000785 95e6      	LSR  R30
000786 95e6      	LSR  R30
000787 30e1      	CPI  R30,LOW(0x1)
000788 f469      	BRNE _0x20000D8
000789 e0e0      	LDI  R30,0
00078a 85fc      	LDD  R31,Y+12
00078b 85ad      	LDD  R26,Y+13
00078c e0b0      	LDI  R27,0
00078d 0fea      	ADD  R30,R26
00078e 1ffb      	ADC  R31,R27
00078f 9631      	ADIW R30,1
000790 019f      	MOVW R18,R30
000791 01d9      	MOVW R26,R18
000792 2788      	CLR  R24
000793 2799      	CLR  R25
000794 e0ea      	LDI  R30,LOW(10)
000795 c02c      	RJMP _0x2000104
                 _0x20000D8:
000796 85e9      	LDD  R30,Y+9
000797 70ef      	ANDI R30,LOW(0xF)
000798 2fae      	MOV  R26,R30
000799 85ee      	LDD  R30,Y+14
00079a 78e0      	ANDI R30,LOW(0x80)
00079b 1fee      	ROL  R30
00079c e0e0      	LDI  R30,0
00079d 1fee      	ROL  R30
00079e 0fae      	ADD  R26,R30
00079f 85ed      	LDD  R30,Y+13
0007a0 70e3      	ANDI R30,LOW(0x3)
0007a1 0fee      	LSL  R30
0007a2 0fea      	ADD  R30,R26
0007a3 5fee      	SUBI R30,-LOW(2)
0007a4 2f0e      	MOV  R16,R30
0007a5 85ec      	LDD  R30,Y+12
0007a6 95e2      	SWAP R30
0007a7 70ef      	ANDI R30,0xF
0007a8 95e6      	LSR  R30
0007a9 95e6      	LSR  R30
0007aa 2fae      	MOV  R26,R30
0007ab 85eb      	LDD  R30,Y+11
0007ac e0f0      	LDI  R31,0
0007ad 940e 1d85 	CALL __LSLW2
0007af e0b0      	LDI  R27,0
0007b0 0fae      	ADD  R26,R30
0007b1 1fbf      	ADC  R27,R31
0007b2 85ea      	LDD  R30,Y+10
0007b3 70e3      	ANDI R30,LOW(0x3)
0007b4 e0f0      	LDI  R31,0
0007b5 940e 1d85 	CALL __LSLW2
0007b7 2ffe      	MOV  R31,R30
0007b8 e0e0      	LDI  R30,0
0007b9 0fea      	ADD  R30,R26
0007ba 1ffb      	ADC  R31,R27
0007bb 9631      	ADIW R30,1
0007bc 019f      	MOVW R18,R30
0007bd 01d9      	MOVW R26,R18
0007be 2788      	CLR  R24
0007bf 2799      	CLR  R25
0007c0 2fe0      	MOV  R30,R16
0007c1 50e9      	SUBI R30,LOW(9)
                 _0x2000104:
0007c2 940e 1d69 	CALL __LSLD12
0007c4 89ac      	LDD  R26,Y+20
0007c5 89bd      	LDD  R27,Y+20+1
0007c6 940e 1e30 	CALL __PUTDP1
0007c8 e010      	LDI  R17,LOW(0)
                 _0x20000D5:
0007c9 c110      	RJMP _0x20000D1
                 _0x20000D4:
0007ca 30e2      	CPI  R30,LOW(0x2)
0007cb f441      	BRNE _0x20000DA
0007cc 89ac      	LDD  R26,Y+20
0007cd 89bd      	LDD  R27,Y+20+1
0007ce e0e0      	LDI  R30,LOW(512)
0007cf e0f2      	LDI  R31,HIGH(512)
0007d0 93ed      	ST   X+,R30
0007d1 93fc      	ST   X,R31
0007d2 e010      	LDI  R17,LOW(0)
0007d3 c106      	RJMP _0x20000D1
                 _0x20000DA:
0007d4 30e3      	CPI  R30,LOW(0x3)
0007d5 f009      	BREQ PC+2
0007d6 c0a9      	RJMP _0x20000DB
0007d7 91e0 0ad9 	LDS  R30,_card_type_G100
0007d9 70e4      	ANDI R30,LOW(0x4)
0007da f171      	BREQ _0x20000DC
0007db eced      	LDI  R30,LOW(205)
0007dc 93ea      	ST   -Y,R30
                +
0007dd e0a0     +LDI R26 , LOW ( 0x0 )
0007de e0b0     +LDI R27 , HIGH ( 0x0 )
0007df e080     +LDI R24 , BYTE3 ( 0x0 )
0007e0 e090     +LDI R25 , BYTE4 ( 0x0 )
                 	__GETD2N 0x0
0007e1 dd51      	RCALL _send_cmd_G100
0007e2 30e0      	CPI  R30,0
0007e3 f521      	BRNE _0x20000DD
0007e4 efef      	LDI  R30,LOW(255)
0007e5 b9ef      	OUT  0xF,R30
                 _0x20000DE:
0007e6 9b77      	SBIS 0xE,7
0007e7 cffe      	RJMP _0x20000DE
0007e8 01fe      	MOVW R30,R28
0007e9 9634      	ADIW R30,4
0007ea 93fa      	ST   -Y,R31
0007eb 93ea      	ST   -Y,R30
0007ec e1a0      	LDI  R26,LOW(16)
0007ed e0b0      	LDI  R27,0
0007ee dca9      	RCALL _rx_datablock_G100
0007ef 30e0      	CPI  R30,0
0007f0 f0b9      	BREQ _0x20000E1
0007f1 e300      	LDI  R16,LOW(48)
                 _0x20000E3:
0007f2 3000      	CPI  R16,0
0007f3 f031      	BREQ _0x20000E4
0007f4 efef      	LDI  R30,LOW(255)
0007f5 b9ef      	OUT  0xF,R30
                 _0x20000E5:
0007f6 9b77      	SBIS 0xE,7
0007f7 cffe      	RJMP _0x20000E5
0007f8 5001      	SUBI R16,1
0007f9 cff8      	RJMP _0x20000E3
                 _0x20000E4:
0007fa 85ee      	LDD  R30,Y+14
0007fb 95e2      	SWAP R30
0007fc 70ef      	ANDI R30,0xF
                +
0007fd e1a0     +LDI R26 , LOW ( 0x10 )
0007fe e0b0     +LDI R27 , HIGH ( 0x10 )
0007ff e080     +LDI R24 , BYTE3 ( 0x10 )
000800 e090     +LDI R25 , BYTE4 ( 0x10 )
                 	__GETD2N 0x10
000801 940e 1d69 	CALL __LSLD12
000803 89ac      	LDD  R26,Y+20
000804 89bd      	LDD  R27,Y+20+1
000805 940e 1e30 	CALL __PUTDP1
000807 e010      	LDI  R17,LOW(0)
                 _0x20000E1:
                 _0x20000DD:
000808 c076      	RJMP _0x20000E8
                 _0x20000DC:
000809 e4e9      	LDI  R30,LOW(73)
00080a 93ea      	ST   -Y,R30
                +
00080b e0a0     +LDI R26 , LOW ( 0x0 )
00080c e0b0     +LDI R27 , HIGH ( 0x0 )
00080d e080     +LDI R24 , BYTE3 ( 0x0 )
00080e e090     +LDI R25 , BYTE4 ( 0x0 )
                 	__GETD2N 0x0
00080f dd23      	RCALL _send_cmd_G100
000810 30e0      	CPI  R30,0
000811 f009      	BREQ PC+2
000812 c06c      	RJMP _0x20000E9
000813 01fe      	MOVW R30,R28
000814 9634      	ADIW R30,4
000815 93fa      	ST   -Y,R31
000816 93ea      	ST   -Y,R30
000817 e1a0      	LDI  R26,LOW(16)
000818 e0b0      	LDI  R27,0
000819 dc7e      	RCALL _rx_datablock_G100
00081a 30e0      	CPI  R30,0
00081b f409      	BRNE PC+2
00081c c062      	RJMP _0x20000EA
00081d 91e0 0ad9 	LDS  R30,_card_type_G100
00081f 70e2      	ANDI R30,LOW(0x2)
000820 f151      	BREQ _0x20000EB
000821 85ee      	LDD  R30,Y+14
000822 73ef      	ANDI R30,LOW(0x3F)
000823 27ff      	CLR  R31
000824 2766      	CLR  R22
000825 2777      	CLR  R23
000826 940e 1d93 	CALL __LSLD1
000828 937f      	PUSH R23
000829 936f      	PUSH R22
00082a 93ff      	PUSH R31
00082b 93ef      	PUSH R30
00082c 85ef      	LDD  R30,Y+15
00082d 78e0      	ANDI R30,LOW(0x80)
00082e 27ff      	CLR  R31
00082f 2766      	CLR  R22
000830 2777      	CLR  R23
000831 01df      	MOVW R26,R30
000832 01cb      	MOVW R24,R22
000833 e0e7      	LDI  R30,LOW(7)
000834 940e 1d75 	CALL __LSRD12
000836 91af      	POP  R26
000837 91bf      	POP  R27
000838 918f      	POP  R24
000839 919f      	POP  R25
00083a 940e 1d44 	CALL __ADDD12
                +
00083c 5fef     +SUBI R30 , LOW ( - 1 )
00083d 4fff     +SBCI R31 , HIGH ( - 1 )
00083e 4f6f     +SBCI R22 , BYTE3 ( - 1 )
00083f 4f7f     +SBCI R23 , BYTE4 ( - 1 )
                 	__ADDD1N 1
000840 01df      	MOVW R26,R30
000841 01cb      	MOVW R24,R22
000842 89e9      	LDD  R30,Y+17
000843 95e2      	SWAP R30
000844 70ef      	ANDI R30,0xF
000845 95e6      	LSR  R30
000846 95e6      	LSR  R30
000847 50e1      	SUBI R30,LOW(1)
000848 940e 1d69 	CALL __LSLD12
00084a c02f      	RJMP _0x2000105
                 _0x20000EB:
00084b 85ee      	LDD  R30,Y+14
00084c 77ec      	ANDI R30,LOW(0x7C)
00084d 95e6      	LSR  R30
00084e 95e6      	LSR  R30
00084f 27ff      	CLR  R31
000850 2766      	CLR  R22
000851 2777      	CLR  R23
                +
000852 5fef     +SUBI R30 , LOW ( - 1 )
000853 4fff     +SBCI R31 , HIGH ( - 1 )
000854 4f6f     +SBCI R22 , BYTE3 ( - 1 )
000855 4f7f     +SBCI R23 , BYTE4 ( - 1 )
                 	__ADDD1N 1
000856 937f      	PUSH R23
000857 936f      	PUSH R22
000858 93ff      	PUSH R31
000859 93ef      	PUSH R30
00085a 85ef      	LDD  R30,Y+15
00085b 70e3      	ANDI R30,LOW(0x3)
00085c 27ff      	CLR  R31
00085d 2766      	CLR  R22
00085e 2777      	CLR  R23
00085f 01df      	MOVW R26,R30
000860 01cb      	MOVW R24,R22
000861 e0e3      	LDI  R30,LOW(3)
000862 940e 1d69 	CALL __LSLD12
000864 01df      	MOVW R26,R30
000865 01cb      	MOVW R24,R22
000866 85ef      	LDD  R30,Y+15
000867 7ee0      	ANDI R30,LOW(0xE0)
000868 95e2      	SWAP R30
000869 70ef      	ANDI R30,0xF
00086a 95e6      	LSR  R30
00086b 27ff      	CLR  R31
00086c 2766      	CLR  R22
00086d 2777      	CLR  R23
00086e 940e 1d44 	CALL __ADDD12
                +
000870 5fef     +SUBI R30 , LOW ( - 1 )
000871 4fff     +SBCI R31 , HIGH ( - 1 )
000872 4f6f     +SBCI R22 , BYTE3 ( - 1 )
000873 4f7f     +SBCI R23 , BYTE4 ( - 1 )
                 	__ADDD1N 1
000874 91af      	POP  R26
000875 91bf      	POP  R27
000876 918f      	POP  R24
000877 919f      	POP  R25
000878 940e 1da7 	CALL __MULD12U
                 _0x2000105:
00087a 89ac      	LDD  R26,Y+20
00087b 89bd      	LDD  R27,Y+20+1
00087c 940e 1e30 	CALL __PUTDP1
00087e e010      	LDI  R17,LOW(0)
                 _0x20000EA:
                 _0x20000E9:
                 _0x20000E8:
00087f c05a      	RJMP _0x20000D1
                 _0x20000DB:
000880 30ea      	CPI  R30,LOW(0xA)
000881 f439      	BRNE _0x20000ED
000882 91e0 0ad9 	LDS  R30,_card_type_G100
000884 89ac      	LDD  R26,Y+20
000885 89bd      	LDD  R27,Y+20+1
000886 93ec      	ST   X,R30
000887 e010      	LDI  R17,LOW(0)
000888 c051      	RJMP _0x20000D1
                 _0x20000ED:
000889 30eb      	CPI  R30,LOW(0xB)
00088a f411      	BRNE _0x20000EE
00088b e409      	LDI  R16,LOW(73)
00088c c003      	RJMP _0x20000EF
                 _0x20000EE:
00088d 30ec      	CPI  R30,LOW(0xC)
00088e f501      	BRNE _0x20000F1
00088f e40a      	LDI  R16,LOW(74)
                 _0x20000EF:
000890 930a      	ST   -Y,R16
                +
000891 e0a0     +LDI R26 , LOW ( 0x0 )
000892 e0b0     +LDI R27 , HIGH ( 0x0 )
000893 e080     +LDI R24 , BYTE3 ( 0x0 )
000894 e090     +LDI R25 , BYTE4 ( 0x0 )
                 	__GETD2N 0x0
000895 dc9d      	RCALL _send_cmd_G100
000896 30e0      	CPI  R30,0
000897 f4b1      	BRNE _0x20000F2
000898 89ec      	LDD  R30,Y+20
000899 89fd      	LDD  R31,Y+20+1
00089a 93fa      	ST   -Y,R31
00089b 93ea      	ST   -Y,R30
00089c e1a0      	LDI  R26,LOW(16)
00089d e0b0      	LDI  R27,0
00089e dbf9      	RCALL _rx_datablock_G100
00089f 30e0      	CPI  R30,0
0008a0 f069      	BREQ _0x20000F3
0008a1 89ec      	LDD  R30,Y+20
0008a2 89fd      	LDD  R31,Y+20+1
0008a3 93fa      	ST   -Y,R31
0008a4 93ea      	ST   -Y,R30
0008a5 e0af      	LDI  R26,LOW(15)
0008a6 dbb7      	RCALL _crc7_G100
0008a7 2fae      	MOV  R26,R30
0008a8 89ec      	LDD  R30,Y+20
0008a9 89fd      	LDD  R31,Y+20+1
0008aa 85e7      	LDD  R30,Z+15
0008ab 17ea      	CP   R30,R26
0008ac f409      	BRNE _0x20000F4
0008ad e010      	LDI  R17,LOW(0)
                 _0x20000F4:
                 _0x20000F3:
                 _0x20000F2:
0008ae c02b      	RJMP _0x20000D1
                 _0x20000F1:
0008af 30ed      	CPI  R30,LOW(0xD)
0008b0 f471      	BRNE _0x20000F5
0008b1 e7ea      	LDI  R30,LOW(122)
0008b2 93ea      	ST   -Y,R30
                +
0008b3 e0a0     +LDI R26 , LOW ( 0x0 )
0008b4 e0b0     +LDI R27 , HIGH ( 0x0 )
0008b5 e080     +LDI R24 , BYTE3 ( 0x0 )
0008b6 e090     +LDI R25 , BYTE4 ( 0x0 )
                 	__GETD2N 0x0
0008b7 dc7b      	RCALL _send_cmd_G100
0008b8 30e0      	CPI  R30,0
0008b9 f421      	BRNE _0x20000F6
0008ba 89ac      	LDD  R26,Y+20
0008bb 89bd      	LDD  R27,Y+20+1
0008bc dcd1      	RCALL _rx_spi4_G100
0008bd e010      	LDI  R17,LOW(0)
                 _0x20000F6:
0008be c01b      	RJMP _0x20000D1
                 _0x20000F5:
0008bf 30ee      	CPI  R30,LOW(0xE)
0008c0 f4c1      	BRNE _0x20000FD
0008c1 eced      	LDI  R30,LOW(205)
0008c2 93ea      	ST   -Y,R30
                +
0008c3 e0a0     +LDI R26 , LOW ( 0x0 )
0008c4 e0b0     +LDI R27 , HIGH ( 0x0 )
0008c5 e080     +LDI R24 , BYTE3 ( 0x0 )
0008c6 e090     +LDI R25 , BYTE4 ( 0x0 )
                 	__GETD2N 0x0
0008c7 dc6b      	RCALL _send_cmd_G100
0008c8 30e0      	CPI  R30,0
0008c9 f471      	BRNE _0x20000F8
0008ca efef      	LDI  R30,LOW(255)
0008cb b9ef      	OUT  0xF,R30
                 _0x20000F9:
0008cc 9b77      	SBIS 0xE,7
0008cd cffe      	RJMP _0x20000F9
0008ce 89ec      	LDD  R30,Y+20
0008cf 89fd      	LDD  R31,Y+20+1
0008d0 93fa      	ST   -Y,R31
0008d1 93ea      	ST   -Y,R30
0008d2 e4a0      	LDI  R26,LOW(64)
0008d3 e0b0      	LDI  R27,0
0008d4 dbc3      	RCALL _rx_datablock_G100
0008d5 30e0      	CPI  R30,0
0008d6 f009      	BREQ _0x20000FC
0008d7 e010      	LDI  R17,LOW(0)
                 _0x20000FC:
                 _0x20000F8:
0008d8 c001      	RJMP _0x20000D1
                 _0x20000FD:
0008d9 e014      	LDI  R17,LOW(4)
                 _0x20000D1:
0008da dbb7      	RCALL _deselect_card_G100
0008db 2fe1      	MOV  R30,R17
                 _0x210001A:
0008dc 940e 1e86 	CALL __LOADLOCR4
0008de 9668      	ADIW R28,24
0008df 9508      	RET
                 ; .FEND
                 _disk_timerproc:
                 ; .FSTART _disk_timerproc
0008e0 931a      	ST   -Y,R17
0008e1 9110 0ad7 	LDS  R17,_timer1_G100
0008e3 3010      	CPI  R17,0
0008e4 f019      	BREQ _0x20000FE
0008e5 5011      	SUBI R17,LOW(1)
0008e6 9310 0ad7 	STS  _timer1_G100,R17
                 _0x20000FE:
0008e8 9110 0ad8 	LDS  R17,_timer2_G100
0008ea 3010      	CPI  R17,0
0008eb f019      	BREQ _0x20000FF
0008ec 5011      	SUBI R17,LOW(1)
0008ed 9310 0ad8 	STS  _timer2_G100,R17
                 _0x20000FF:
0008ef 91e0 0ad6 	LDS  R30,_status_G100
0008f1 7feb      	ANDI R30,0xFB
0008f2 93e0 0ad6 	STS  _status_G100,R30
                 _0x2100019:
0008f4 9119      	LD   R17,Y+
0008f5 9508      	RET
                 ; .FEND
                 
                 	.CSEG
                 _get_fattime:
                 ; .FSTART _get_fattime
0008f6 9727      	SBIW R28,7
0008f7 91a0 0500 	LDS  R26,_prtc_get_time
0008f9 91b0 0501 	LDS  R27,_prtc_get_time+1
0008fb 9710      	SBIW R26,0
0008fc f031      	BREQ _0x2020004
0008fd 91a0 0502 	LDS  R26,_prtc_get_date
0008ff 91b0 0503 	LDS  R27,_prtc_get_date+1
000901 9710      	SBIW R26,0
000902 f429      	BRNE _0x2020003
                 _0x2020004:
                +
000903 e0e0     +LDI R30 , LOW ( 0x3A210000 )
000904 e0f0     +LDI R31 , HIGH ( 0x3A210000 )
000905 e261     +LDI R22 , BYTE3 ( 0x3A210000 )
000906 e37a     +LDI R23 , BYTE4 ( 0x3A210000 )
                 	__GETD1N 0x3A210000
000907 c06d      	RJMP _0x2100018
                 _0x2020003:
000908 01fe      	MOVW R30,R28
000909 9636      	ADIW R30,6
00090a 93fa      	ST   -Y,R31
00090b 93ea      	ST   -Y,R30
00090c 01fe      	MOVW R30,R28
00090d 9637      	ADIW R30,7
00090e 93fa      	ST   -Y,R31
00090f 93ea      	ST   -Y,R30
000910 01de      	MOVW R26,R28
000911 9618      	ADIW R26,8
                +
000912 91e0 0500+LDS R30 , _prtc_get_time + ( 0 )
000914 91f0 0501+LDS R31 , _prtc_get_time + ( 0 ) + 1
000916 9509     +ICALL
                 	__CALL1MN _prtc_get_time,0
000917 01fe      	MOVW R30,R28
000918 9633      	ADIW R30,3
000919 93fa      	ST   -Y,R31
00091a 93ea      	ST   -Y,R30
00091b 01fe      	MOVW R30,R28
00091c 9634      	ADIW R30,4
00091d 93fa      	ST   -Y,R31
00091e 93ea      	ST   -Y,R30
00091f 01de      	MOVW R26,R28
000920 9614      	ADIW R26,4
                +
000921 91e0 0502+LDS R30 , _prtc_get_date + ( 0 )
000923 91f0 0503+LDS R31 , _prtc_get_date + ( 0 ) + 1
000925 9509     +ICALL
                 	__CALL1MN _prtc_get_date,0
000926 81e8      	LD   R30,Y
000927 81f9      	LDD  R31,Y+1
000928 5bec      	SUBI R30,LOW(1980)
000929 40f7      	SBCI R31,HIGH(1980)
00092a 2766      	CLR  R22
00092b 2777      	CLR  R23
00092c 01df      	MOVW R26,R30
00092d 01cb      	MOVW R24,R22
00092e e1e9      	LDI  R30,LOW(25)
00092f 940e 1d69 	CALL __LSLD12
000931 937f      	PUSH R23
000932 936f      	PUSH R22
000933 93ff      	PUSH R31
000934 93ef      	PUSH R30
000935 81ea      	LDD  R30,Y+2
000936 940e 19e6 	CALL SUBOPT_0x7
000938 e1e5      	LDI  R30,LOW(21)
000939 940e 1d69 	CALL __LSLD12
00093b 91af      	POP  R26
00093c 91bf      	POP  R27
00093d 918f      	POP  R24
00093e 919f      	POP  R25
00093f 940e 1d58 	CALL __ORD12
000941 01df      	MOVW R26,R30
000942 01cb      	MOVW R24,R22
000943 81eb      	LDD  R30,Y+3
000944 e0f0      	LDI  R31,0
000945 940e 1da2 	CALL __CWD1
000947 940e 1d9d 	CALL __LSLD16
000949 940e 1d58 	CALL __ORD12
00094b 937f      	PUSH R23
00094c 936f      	PUSH R22
00094d 93ff      	PUSH R31
00094e 93ef      	PUSH R30
00094f 81ee      	LDD  R30,Y+6
000950 940e 19e6 	CALL SUBOPT_0x7
000952 e0eb      	LDI  R30,LOW(11)
000953 940e 1d69 	CALL __LSLD12
000955 91af      	POP  R26
000956 91bf      	POP  R27
000957 918f      	POP  R24
000958 919f      	POP  R25
000959 940e 1d58 	CALL __ORD12
00095b 937f      	PUSH R23
00095c 936f      	PUSH R22
00095d 93ff      	PUSH R31
00095e 93ef      	PUSH R30
00095f 81ed      	LDD  R30,Y+5
000960 940e 19e6 	CALL SUBOPT_0x7
000962 e0e5      	LDI  R30,LOW(5)
000963 940e 1d69 	CALL __LSLD12
000965 91af      	POP  R26
000966 91bf      	POP  R27
000967 918f      	POP  R24
000968 919f      	POP  R25
000969 940e 1d58 	CALL __ORD12
00096b 01df      	MOVW R26,R30
00096c 01cb      	MOVW R24,R22
00096d 81ec      	LDD  R30,Y+4
00096e e0f0      	LDI  R31,0
00096f 95f5      	ASR  R31
000970 95e7      	ROR  R30
000971 940e 1da2 	CALL __CWD1
000973 940e 1d58 	CALL __ORD12
                 _0x2100018:
000975 9627      	ADIW R28,7
000976 9508      	RET
                 ; .FEND
                 _chk_chrf_G101:
                 ; .FSTART _chk_chrf_G101
000977 93aa      	ST   -Y,R26
000978 931a      	ST   -Y,R17
                 _0x2020006:
000979 81ea      	LDD  R30,Y+2
00097a 81fb      	LDD  R31,Y+2+1
00097b 91e4      	LPM  R30,Z
00097c 2f1e      	MOV  R17,R30
00097d 30e0      	CPI  R30,0
00097e f019      	BREQ _0x2020009
00097f 81e9      	LDD  R30,Y+1
000980 17e1      	CP   R30,R17
000981 f409      	BRNE _0x202000A
                 _0x2020009:
000982 c006      	RJMP _0x2020008
                 _0x202000A:
000983 81ea      	LDD  R30,Y+2
000984 81fb      	LDD  R31,Y+2+1
000985 9631      	ADIW R30,1
000986 83ea      	STD  Y+2,R30
000987 83fb      	STD  Y+2+1,R31
000988 cff0      	RJMP _0x2020006
                 _0x2020008:
000989 2fe1      	MOV  R30,R17
00098a e0f0      	LDI  R31,0
00098b 8118      	LDD  R17,Y+0
                 _0x2100017:
00098c 9624      	ADIW R28,4
00098d 9508      	RET
                 ; .FEND
                 _move_window_G101:
                 ; .FSTART _move_window_G101
00098e 940e 1e57 	CALL __PUTPARD2
000990 9724      	SBIW R28,4
000991 931a      	ST   -Y,R17
000992 85a9      	LDD  R26,Y+9
000993 85ba      	LDD  R27,Y+9+1
000994 969e      	ADIW R26,46
000995 940e 1e25 	CALL __GETD1P
000997 940e 19ec 	CALL SUBOPT_0x8
000999 940e 19f1 	CALL SUBOPT_0x9
00099b 940e 19f6 	CALL SUBOPT_0xA
00099d 940e 1e73 	CALL __CPD12
00099f f409      	BRNE PC+2
0009a0 c052      	RJMP _0x202000B
0009a1 85e9      	LDD  R30,Y+9
0009a2 85fa      	LDD  R31,Y+9+1
0009a3 81e4      	LDD  R30,Z+4
0009a4 30e0      	CPI  R30,0
0009a5 f179      	BREQ _0x202000C
0009a6 940e 19fb 	CALL SUBOPT_0xB
0009a8 30e0      	CPI  R30,0
0009a9 f5f1      	BRNE _0x2100016
0009aa 85a9      	LDD  R26,Y+9
0009ab 85ba      	LDD  R27,Y+9+1
0009ac 9614      	ADIW R26,4
0009ad e0e0      	LDI  R30,LOW(0)
0009ae 93ec      	ST   X,R30
0009af 85e9      	LDD  R30,Y+9
0009b0 85fa      	LDD  R31,Y+9+1
0009b1 940e 1a0d 	CALL SUBOPT_0xC
0009b3 010d      	MOVW R0,R26
0009b4 85a9      	LDD  R26,Y+9
0009b5 85ba      	LDD  R27,Y+9+1
0009b6 965a      	ADIW R26,26
0009b7 940e 1e25 	CALL __GETD1P
0009b9 01d0      	MOVW R26,R0
0009ba 940e 1d44 	CALL __ADDD12
0009bc 940e 19f6 	CALL SUBOPT_0xA
0009be 940e 1e78 	CALL __CPD21
0009c0 f4a0      	BRSH _0x202000E
0009c1 85e9      	LDD  R30,Y+9
0009c2 85fa      	LDD  R31,Y+9+1
0009c3 8113      	LDD  R17,Z+3
                 _0x2020010:
0009c4 3012      	CPI  R17,2
0009c5 f078      	BRLO _0x2020011
0009c6 85a9      	LDD  R26,Y+9
0009c7 85ba      	LDD  R27,Y+9+1
0009c8 965a      	ADIW R26,26
0009c9 940e 1e25 	CALL __GETD1P
0009cb 940e 19f6 	CALL SUBOPT_0xA
0009cd 940e 1d44 	CALL __ADDD12
0009cf 940e 19ec 	CALL SUBOPT_0x8
0009d1 940e 19fb 	CALL SUBOPT_0xB
0009d3 5011      	SUBI R17,1
0009d4 cfef      	RJMP _0x2020010
                 _0x2020011:
                 _0x202000E:
                 _0x202000C:
0009d5 940e 19f1 	CALL SUBOPT_0x9
0009d7 940e 1e69 	CALL __CPD10
0009d9 f0c9      	BREQ _0x2020012
0009da 85e9      	LDD  R30,Y+9
0009db 85fa      	LDD  R31,Y+9+1
0009dc 81a1      	LDD  R26,Z+1
0009dd 93aa      	ST   -Y,R26
0009de 85ea      	LDD  R30,Y+10
0009df 85fb      	LDD  R31,Y+10+1
0009e0 96f2      	ADIW R30,50
0009e1 93fa      	ST   -Y,R31
0009e2 93ea      	ST   -Y,R30
0009e3 940e 1a12 	CALL SUBOPT_0xD
0009e5 940e 1a17 	CALL SUBOPT_0xE
0009e7 f021      	BREQ _0x2020013
                 _0x2100016:
0009e8 e0e1      	LDI  R30,LOW(1)
0009e9 8118      	LDD  R17,Y+0
0009ea 962b      	ADIW R28,11
0009eb 9508      	RET
                 _0x2020013:
0009ec 940e 19f1 	CALL SUBOPT_0x9
                +
0009ee 85a9     +LDD R26 , Y + 9
0009ef 85ba     +LDD R27 , Y + 9 + 1
0009f0 969e     +ADIW R26 , 46
0009f1 940e 1e30+CALL __PUTDP1
                 	__PUTD1SNS 9,46
                 _0x2020012:
                 _0x202000B:
0009f3 e0e0      	LDI  R30,LOW(0)
0009f4 8118      	LDD  R17,Y+0
0009f5 c45b      	RJMP _0x2100011
                 ; .FEND
                 _sync_G101:
                 ; .FSTART _sync_G101
0009f6 940e 1a1e 	CALL SUBOPT_0xF
0009f8 940e 1a26 	CALL SUBOPT_0x10
0009fa 940e 1a2b 	CALL SUBOPT_0x11
0009fc f009      	BREQ PC+2
0009fd c05b      	RJMP _0x2020014
0009fe 81a9      	LDD  R26,Y+1
0009ff 81ba      	LDD  R27,Y+1+1
000a00 91ac      	LD   R26,X
000a01 30a3      	CPI  R26,LOW(0x3)
000a02 f429      	BRNE _0x2020016
000a03 81e9      	LDD  R30,Y+1
000a04 81fa      	LDD  R31,Y+1+1
000a05 81e5      	LDD  R30,Z+5
000a06 30e0      	CPI  R30,0
000a07 f409      	BRNE _0x2020017
                 _0x2020016:
000a08 c044      	RJMP _0x2020015
                 _0x2020017:
000a09 81a9      	LDD  R26,Y+1
000a0a 81ba      	LDD  R27,Y+1+1
000a0b 940e 1a30 	CALL SUBOPT_0x12
000a0d 81e9      	LDD  R30,Y+1
000a0e 81fa      	LDD  R31,Y+1+1
000a0f 940e 1a38 	CALL SUBOPT_0x13
000a11 81e9      	LDD  R30,Y+1
000a12 81fa      	LDD  R31,Y+1+1
000a13 96f2      	ADIW R30,50
000a14 50e2      	SUBI R30,LOW(-510)
000a15 4ffe      	SBCI R31,HIGH(-510)
000a16 e5a5      	LDI  R26,LOW(43605)
000a17 eaba      	LDI  R27,HIGH(43605)
000a18 83a0      	STD  Z+0,R26
000a19 83b1      	STD  Z+1,R27
000a1a 81e9      	LDD  R30,Y+1
000a1b 81fa      	LDD  R31,Y+1+1
000a1c 96f2      	ADIW R30,50
                +
000a1d e5a2     +LDI R26 , LOW ( 0x41615252 )
000a1e e5b2     +LDI R27 , HIGH ( 0x41615252 )
000a1f e681     +LDI R24 , BYTE3 ( 0x41615252 )
000a20 e491     +LDI R25 , BYTE4 ( 0x41615252 )
                 	__GETD2N 0x41615252
000a21 940e 1a41 	CALL SUBOPT_0x14
000a23 51ec      	SUBI R30,LOW(-484)
000a24 4ffe      	SBCI R31,HIGH(-484)
                +
000a25 e7a2     +LDI R26 , LOW ( 0x61417272 )
000a26 e7b2     +LDI R27 , HIGH ( 0x61417272 )
000a27 e481     +LDI R24 , BYTE3 ( 0x61417272 )
000a28 e691     +LDI R25 , BYTE4 ( 0x61417272 )
                 	__GETD2N 0x61417272
000a29 940e 1a41 	CALL SUBOPT_0x14
000a2b 51e8      	SUBI R30,LOW(-488)
000a2c 4ffe      	SBCI R31,HIGH(-488)
000a2d 010f      	MOVW R0,R30
000a2e 81a9      	LDD  R26,Y+1
000a2f 81ba      	LDD  R27,Y+1+1
000a30 961e      	ADIW R26,14
000a31 940e 1a47 	CALL SUBOPT_0x15
000a33 96f2      	ADIW R30,50
000a34 51e4      	SUBI R30,LOW(-492)
000a35 4ffe      	SBCI R31,HIGH(-492)
000a36 010f      	MOVW R0,R30
000a37 81a9      	LDD  R26,Y+1
000a38 81ba      	LDD  R27,Y+1+1
000a39 961a      	ADIW R26,10
000a3a 940e 1a47 	CALL SUBOPT_0x15
000a3c 81a1      	LDD  R26,Z+1
000a3d 93aa      	ST   -Y,R26
000a3e 81ea      	LDD  R30,Y+2
000a3f 81fb      	LDD  R31,Y+2+1
000a40 96f2      	ADIW R30,50
000a41 93fa      	ST   -Y,R31
000a42 93ea      	ST   -Y,R30
000a43 81ec      	LDD  R30,Y+4
000a44 81fd      	LDD  R31,Y+4+1
000a45 940e 1a4f 	CALL SUBOPT_0x16
000a47 dc93      	RCALL _disk_write
000a48 81a9      	LDD  R26,Y+1
000a49 81ba      	LDD  R27,Y+1+1
000a4a 9615      	ADIW R26,5
000a4b e0e0      	LDI  R30,LOW(0)
000a4c 93ec      	ST   X,R30
                 _0x2020015:
000a4d 81e9      	LDD  R30,Y+1
000a4e 81fa      	LDD  R31,Y+1+1
000a4f 81a1      	LDD  R26,Z+1
000a50 93aa      	ST   -Y,R26
000a51 e0e0      	LDI  R30,LOW(0)
000a52 93ea      	ST   -Y,R30
000a53 e0a0      	LDI  R26,LOW(0)
000a54 e0b0      	LDI  R27,HIGH(0)
000a55 dcfc      	RCALL _disk_ioctl
000a56 30e0      	CPI  R30,0
000a57 f009      	BREQ _0x2020018
000a58 e011      	LDI  R17,LOW(1)
                 _0x2020018:
                 _0x2020014:
000a59 2fe1      	MOV  R30,R17
                 _0x2100015:
000a5a 8118      	LDD  R17,Y+0
000a5b 9623      	ADIW R28,3
000a5c 9508      	RET
                 ; .FEND
                 _get_fat:
                 ; .FSTART _get_fat
000a5d 940e 1e57 	CALL __PUTPARD2
000a5f 9724      	SBIW R28,4
000a60 940e 1e7f 	CALL __SAVELOCR4
000a62 940e 1a57 	CALL SUBOPT_0x17
000a64 940e 1a5c 	CALL SUBOPT_0x18
000a66 f050      	BRLO _0x202001A
000a67 85ac      	LDD  R26,Y+12
000a68 85bd      	LDD  R27,Y+12+1
000a69 965e      	ADIW R26,30
000a6a 940e 1e25 	CALL __GETD1P
000a6c 940e 1a57 	CALL SUBOPT_0x17
000a6e 940e 1e78 	CALL __CPD21
000a70 f018      	BRLO _0x2020019
                 _0x202001A:
000a71 940e 1a64 	CALL SUBOPT_0x19
000a73 c063      	RJMP _0x2100014
                 _0x2020019:
000a74 85ac      	LDD  R26,Y+12
000a75 85bd      	LDD  R27,Y+12+1
000a76 9692      	ADIW R26,34
000a77 940e 1a69 	CALL SUBOPT_0x1A
000a79 85ac      	LDD  R26,Y+12
000a7a 85bd      	LDD  R27,Y+12+1
000a7b 91ec      	LD   R30,X
000a7c e0f0      	LDI  R31,0
000a7d 30e1      	CPI  R30,LOW(0x1)
000a7e e0a0      	LDI  R26,HIGH(0x1)
000a7f 07fa      	CPC  R31,R26
000a80 f541      	BRNE _0x202001F
                +
000a81 8528     +LDD R18 , Y + 8
000a82 8539     +LDD R19 , Y + 8 + 1
                 	__GETWRS 18,19,8
000a83 01f9      	MOVW R30,R18
000a84 95f6      	LSR  R31
000a85 95e7      	ROR  R30
                +
000a86 0f2e     +ADD R18 , R30
000a87 1f3f     +ADC R19 , R31
                 	__ADDWRR 18,19,30,31
000a88 940e 1a70 	CALL SUBOPT_0x1B
000a8a f009      	BREQ _0x2020020
000a8b c049      	RJMP _0x202001E
                 _0x2020020:
000a8c 940e 1a85 	CALL SUBOPT_0x1C
000a8e 910c      	LD   R16,X
000a8f 2711      	CLR  R17
                +
000a90 5f2f     +SUBI R18 , LOW ( - 1 )
000a91 4f3f     +SBCI R19 , HIGH ( - 1 )
                 	__ADDWRN 18,19,1
000a92 940e 1a70 	CALL SUBOPT_0x1B
000a94 f009      	BREQ _0x2020021
000a95 c03f      	RJMP _0x202001E
                 _0x2020021:
000a96 940e 1a85 	CALL SUBOPT_0x1C
000a98 91ec      	LD   R30,X
000a99 2ffe      	MOV  R31,R30
000a9a e0e0      	LDI  R30,0
                +
000a9b 2b0e     +OR R16 , R30
000a9c 2b1f     +OR R17 , R31
                 	__ORWRR 16,17,30,31
000a9d 85e8      	LDD  R30,Y+8
000a9e 70e1      	ANDI R30,LOW(0x1)
000a9f f021      	BREQ _0x2020022
000aa0 01f8      	MOVW R30,R16
000aa1 940e 1d8a 	CALL __LSRW4
000aa3 c002      	RJMP _0x202027A
                 _0x2020022:
000aa4 01f8      	MOVW R30,R16
000aa5 70ff      	ANDI R31,HIGH(0xFFF)
                 _0x202027A:
000aa6 2766      	CLR  R22
000aa7 2777      	CLR  R23
000aa8 c02e      	RJMP _0x2100014
                 _0x202001F:
000aa9 30e2      	CPI  R30,LOW(0x2)
000aaa e0a0      	LDI  R26,HIGH(0x2)
000aab 07fa      	CPC  R31,R26
000aac f479      	BRNE _0x2020025
000aad 940e 1a8d 	CALL SUBOPT_0x1D
000aaf 940e 19d6 	CALL SUBOPT_0x4
000ab1 940e 1a96 	CALL SUBOPT_0x1E
000ab3 f509      	BRNE _0x202001E
000ab4 85a8      	LDD  R26,Y+8
000ab5 85b9      	LDD  R27,Y+8+1
000ab6 e0e2      	LDI  R30,LOW(2)
000ab7 940e 1aa2 	CALL SUBOPT_0x1F
000ab9 940e 1aab 	CALL SUBOPT_0x20
000abb c01b      	RJMP _0x2100014
                 _0x2020025:
000abc 30e3      	CPI  R30,LOW(0x3)
000abd e0a0      	LDI  R26,HIGH(0x3)
000abe 07fa      	CPC  R31,R26
000abf f4a9      	BRNE _0x202001E
000ac0 940e 1a8d 	CALL SUBOPT_0x1D
                +
000ac2 e8e0     +LDI R30 , LOW ( 0x80 )
000ac3 e0f0     +LDI R31 , HIGH ( 0x80 )
000ac4 e060     +LDI R22 , BYTE3 ( 0x80 )
000ac5 e070     +LDI R23 , BYTE4 ( 0x80 )
                 	__GETD1N 0x80
000ac6 940e 1a96 	CALL SUBOPT_0x1E
000ac8 f461      	BRNE _0x202001E
000ac9 85a8      	LDD  R26,Y+8
000aca 85b9      	LDD  R27,Y+8+1
000acb e0e4      	LDI  R30,LOW(4)
000acc 940e 1aa2 	CALL SUBOPT_0x1F
000ace 940e 1e25 	CALL __GETD1P
                +
000ad0 7fef     +ANDI R30 , LOW ( 0xFFFFFFF )
000ad1 7fff     +ANDI R31 , HIGH ( 0xFFFFFFF )
000ad2 7f6f     +ANDI R22 , BYTE3 ( 0xFFFFFFF )
000ad3 707f     +ANDI R23 , BYTE4 ( 0xFFFFFFF )
                 	__ANDD1N 0xFFFFFFF
000ad4 c002      	RJMP _0x2100014
                 _0x202001E:
000ad5 940e 1ab0 	CALL SUBOPT_0x21
                 _0x2100014:
000ad7 940e 1e86 	CALL __LOADLOCR4
000ad9 962e      	ADIW R28,14
000ada 9508      	RET
                 ; .FEND
                 _put_fat:
                 ; .FSTART _put_fat
000adb 940e 1e57 	CALL __PUTPARD2
000add 9724      	SBIW R28,4
000ade 940e 1e7d 	CALL __SAVELOCR6
000ae0 940e 1ab5 	CALL SUBOPT_0x22
000ae2 940e 1a5c 	CALL SUBOPT_0x18
000ae4 f050      	BRLO _0x202002A
000ae5 89aa      	LDD  R26,Y+18
000ae6 89bb      	LDD  R27,Y+18+1
000ae7 965e      	ADIW R26,30
000ae8 940e 1e25 	CALL __GETD1P
000aea 940e 1ab5 	CALL SUBOPT_0x22
000aec 940e 1e78 	CALL __CPD21
000aee f010      	BRLO _0x2020029
                 _0x202002A:
000aef e052      	LDI  R21,LOW(2)
000af0 c087      	RJMP _0x202002C
                 _0x2020029:
000af1 89aa      	LDD  R26,Y+18
000af2 89bb      	LDD  R27,Y+18+1
000af3 9692      	ADIW R26,34
000af4 940e 1e25 	CALL __GETD1P
                +
000af6 83ee     +STD Y + 6 , R30
000af7 83ff     +STD Y + 6 + 1 , R31
000af8 8768     +STD Y + 6 + 2 , R22
000af9 8779     +STD Y + 6 + 3 , R23
                 	__PUTD1S 6
000afa 89aa      	LDD  R26,Y+18
000afb 89bb      	LDD  R27,Y+18+1
000afc 91ec      	LD   R30,X
000afd e0f0      	LDI  R31,0
000afe 30e1      	CPI  R30,LOW(0x1)
000aff e0a0      	LDI  R26,HIGH(0x1)
000b00 07fa      	CPC  R31,R26
000b01 f009      	BREQ PC+2
000b02 c043      	RJMP _0x2020030
                +
000b03 850e     +LDD R16 , Y + 14
000b04 851f     +LDD R17 , Y + 14 + 1
                 	__GETWRS 16,17,14
000b05 01f8      	MOVW R30,R16
000b06 95f6      	LSR  R31
000b07 95e7      	ROR  R30
                +
000b08 0f0e     +ADD R16 , R30
000b09 1f1f     +ADC R17 , R31
                 	__ADDWRR 16,17,30,31
000b0a 940e 1aba 	CALL SUBOPT_0x23
000b0c f009      	BREQ _0x2020031
000b0d c065      	RJMP _0x202002F
                 _0x2020031:
000b0e 940e 1acd 	CALL SUBOPT_0x24
000b10 f051      	BREQ _0x2020032
000b11 01d9      	MOVW R26,R18
000b12 91ec      	LD   R30,X
000b13 70ef      	ANDI R30,LOW(0xF)
000b14 2fae      	MOV  R26,R30
000b15 85ea      	LDD  R30,Y+10
000b16 e0f0      	LDI  R31,0
000b17 940e 1d81 	CALL __LSLW4
000b19 2bea      	OR   R30,R26
000b1a c001      	RJMP _0x2020033
                 _0x2020032:
000b1b 85ea      	LDD  R30,Y+10
                 _0x2020033:
000b1c 01d9      	MOVW R26,R18
000b1d 93ec      	ST   X,R30
                +
000b1e 5f0f     +SUBI R16 , LOW ( - 1 )
000b1f 4f1f     +SBCI R17 , HIGH ( - 1 )
                 	__ADDWRN 16,17,1
000b20 89aa      	LDD  R26,Y+18
000b21 89bb      	LDD  R27,Y+18+1
000b22 9614      	ADIW R26,4
000b23 e0e1      	LDI  R30,LOW(1)
000b24 93ec      	ST   X,R30
000b25 940e 1aba 	CALL SUBOPT_0x23
000b27 f009      	BREQ _0x2020035
000b28 c04a      	RJMP _0x202002F
                 _0x2020035:
000b29 940e 1acd 	CALL SUBOPT_0x24
000b2b f049      	BREQ _0x2020036
000b2c 940e 1ad8 	CALL SUBOPT_0x25
000b2e e0e4      	LDI  R30,LOW(4)
000b2f 940e 1d75 	CALL __LSRD12
000b31 27ff      	CLR  R31
000b32 2766      	CLR  R22
000b33 2777      	CLR  R23
000b34 c00e      	RJMP _0x2020037
                 _0x2020036:
000b35 01d9      	MOVW R26,R18
000b36 91ec      	LD   R30,X
000b37 7fe0      	ANDI R30,LOW(0xF0)
000b38 2e1e      	MOV  R1,R30
000b39 940e 1ad8 	CALL SUBOPT_0x25
000b3b e0e8      	LDI  R30,LOW(8)
000b3c 940e 1d75 	CALL __LSRD12
000b3e 27ff      	CLR  R31
000b3f 2766      	CLR  R22
000b40 2777      	CLR  R23
000b41 70ef      	ANDI R30,LOW(0xF)
000b42 29e1      	OR   R30,R1
                 _0x2020037:
000b43 01d9      	MOVW R26,R18
000b44 93ec      	ST   X,R30
000b45 c02d      	RJMP _0x202002F
                 _0x2020030:
000b46 30e2      	CPI  R30,LOW(0x2)
000b47 e0a0      	LDI  R26,HIGH(0x2)
000b48 07fa      	CPC  R31,R26
000b49 f489      	BRNE _0x2020039
000b4a 940e 1add 	CALL SUBOPT_0x26
000b4c 940e 19d6 	CALL SUBOPT_0x4
000b4e 940e 1ae6 	CALL SUBOPT_0x27
000b50 f511      	BRNE _0x202002F
000b51 85ae      	LDD  R26,Y+14
000b52 85bf      	LDD  R27,Y+14+1
000b53 e0e2      	LDI  R30,LOW(2)
000b54 940e 1af0 	CALL SUBOPT_0x28
000b56 85aa      	LDD  R26,Y+10
000b57 85bb      	LDD  R27,Y+10+1
000b58 83a0      	STD  Z+0,R26
000b59 83b1      	STD  Z+1,R27
000b5a c018      	RJMP _0x202002F
                 _0x2020039:
000b5b 30e3      	CPI  R30,LOW(0x3)
000b5c e0a0      	LDI  R26,HIGH(0x3)
000b5d 07fa      	CPC  R31,R26
000b5e f499      	BRNE _0x202003D
000b5f 940e 1add 	CALL SUBOPT_0x26
                +
000b61 e8e0     +LDI R30 , LOW ( 0x80 )
000b62 e0f0     +LDI R31 , HIGH ( 0x80 )
000b63 e060     +LDI R22 , BYTE3 ( 0x80 )
000b64 e070     +LDI R23 , BYTE4 ( 0x80 )
                 	__GETD1N 0x80
000b65 940e 1ae6 	CALL SUBOPT_0x27
000b67 f459      	BRNE _0x202002F
000b68 85ae      	LDD  R26,Y+14
000b69 85bf      	LDD  R27,Y+14+1
000b6a e0e4      	LDI  R30,LOW(4)
000b6b 940e 1af0 	CALL SUBOPT_0x28
000b6d 940e 1ad8 	CALL SUBOPT_0x25
000b6f 940e 1e4d 	CALL __PUTDZ20
000b71 c001      	RJMP _0x202002F
                 _0x202003D:
000b72 e052      	LDI  R21,LOW(2)
                 _0x202002F:
000b73 89aa      	LDD  R26,Y+18
000b74 89bb      	LDD  R27,Y+18+1
000b75 9614      	ADIW R26,4
000b76 e0e1      	LDI  R30,LOW(1)
000b77 93ec      	ST   X,R30
                 _0x202002C:
000b78 2fe5      	MOV  R30,R21
000b79 940e 1e84 	CALL __LOADLOCR6
000b7b 9664      	ADIW R28,20
000b7c 9508      	RET
                 ; .FEND
                 _remove_chain_G101:
                 ; .FSTART _remove_chain_G101
000b7d 940e 1e57 	CALL __PUTPARD2
000b7f 9724      	SBIW R28,4
000b80 931a      	ST   -Y,R17
000b81 940e 1af9 	CALL SUBOPT_0x29
000b83 940e 1a5c 	CALL SUBOPT_0x18
000b85 f018      	BRLO _0x202003F
000b86 940e 1afe 	CALL SUBOPT_0x2A
000b88 f010      	BRLO _0x202003E
                 _0x202003F:
000b89 e012      	LDI  R17,LOW(2)
000b8a c048      	RJMP _0x2020041
                 _0x202003E:
000b8b e010      	LDI  R17,LOW(0)
                 _0x2020042:
000b8c 940e 1afe 	CALL SUBOPT_0x2A
000b8e f008      	BRLO PC+2
000b8f c043      	RJMP _0x2020044
000b90 85e9      	LDD  R30,Y+9
000b91 85fa      	LDD  R31,Y+9+1
000b92 93fa      	ST   -Y,R31
000b93 93ea      	ST   -Y,R30
                +
000b94 81af     +LDD R26 , Y + 7
000b95 85b8     +LDD R27 , Y + 7 + 1
000b96 8589     +LDD R24 , Y + 7 + 2
000b97 859a     +LDD R25 , Y + 7 + 3
                 	__GETD2S 7
000b98 dec4      	RCALL _get_fat
000b99 940e 19ec 	CALL SUBOPT_0x8
                +
000b9b 81e9     +LDD R30 , Y + 1
000b9c 81fa     +LDD R31 , Y + 1 + 1
000b9d 816b     +LDD R22 , Y + 1 + 2
000b9e 817c     +LDD R23 , Y + 1 + 3
                 	__GETD1S 1
000b9f 940e 1e69 	CALL __CPD10
000ba1 f189      	BREQ _0x2020044
000ba2 940e 19f6 	CALL SUBOPT_0xA
000ba4 940e 1b07 	CALL SUBOPT_0x2B
000ba6 f411      	BRNE _0x2020046
000ba7 e012      	LDI  R17,LOW(2)
000ba8 c02a      	RJMP _0x2020044
                 _0x2020046:
000ba9 940e 19f6 	CALL SUBOPT_0xA
000bab 940e 1b0f 	CALL SUBOPT_0x2C
000bad f411      	BRNE _0x2020047
000bae e011      	LDI  R17,LOW(1)
000baf c023      	RJMP _0x2020044
                 _0x2020047:
000bb0 85e9      	LDD  R30,Y+9
000bb1 85fa      	LDD  R31,Y+9+1
000bb2 93fa      	ST   -Y,R31
000bb3 93ea      	ST   -Y,R30
                +
000bb4 81ef     +LDD R30 , Y + 7
000bb5 85f8     +LDD R31 , Y + 7 + 1
000bb6 8569     +LDD R22 , Y + 7 + 2
000bb7 857a     +LDD R23 , Y + 7 + 3
                 	__GETD1S 7
000bb8 940e 1e52 	CALL __PUTPARD1
000bba 940e 1a26 	CALL SUBOPT_0x10
000bbc df1e      	RCALL _put_fat
000bbd 2f1e      	MOV  R17,R30
000bbe 3010      	CPI  R17,0
000bbf f499      	BRNE _0x2020044
000bc0 85e9      	LDD  R30,Y+9
000bc1 85fa      	LDD  R31,Y+9+1
000bc2 940e 1b17 	CALL SUBOPT_0x2D
000bc4 f029      	BREQ _0x2020049
000bc5 940e 1b1c 	CALL SUBOPT_0x2E
000bc7 9615      	ADIW R26,5
000bc8 e0e1      	LDI  R30,LOW(1)
000bc9 93ec      	ST   X,R30
                 _0x2020049:
                +
000bca 81e9     +LDD R30 , Y + 1
000bcb 81fa     +LDD R31 , Y + 1 + 1
000bcc 816b     +LDD R22 , Y + 1 + 2
000bcd 817c     +LDD R23 , Y + 1 + 3
                 	__GETD1S 1
                +
000bce 83ed     +STD Y + 5 , R30
000bcf 83fe     +STD Y + 5 + 1 , R31
000bd0 836f     +STD Y + 5 + 2 , R22
000bd1 8778     +STD Y + 5 + 3 , R23
                 	__PUTD1S 5
000bd2 cfb9      	RJMP _0x2020042
                 _0x2020044:
                 _0x2020041:
000bd3 2fe1      	MOV  R30,R17
000bd4 8118      	LDD  R17,Y+0
000bd5 c27b      	RJMP _0x2100011
                 ; .FEND
                 _create_chain_G101:
                 ; .FSTART _create_chain_G101
000bd6 940e 1e57 	CALL __PUTPARD2
000bd8 9760      	SBIW R28,16
000bd9 89ac      	LDD  R26,Y+20
000bda 89bd      	LDD  R27,Y+20+1
000bdb 965e      	ADIW R26,30
000bdc 940e 1e25 	CALL __GETD1P
000bde 940e 1b2a 	CALL SUBOPT_0x2F
000be0 940e 1b2d 	CALL SUBOPT_0x30
000be2 940e 1e69 	CALL __CPD10
000be4 f4b1      	BRNE _0x202004A
000be5 89ac      	LDD  R26,Y+20
000be6 89bd      	LDD  R27,Y+20+1
000be7 961a      	ADIW R26,10
000be8 940e 1a69 	CALL SUBOPT_0x1A
000bea 940e 1b32 	CALL SUBOPT_0x31
000bec 940e 1e6d 	CALL __CPD02
000bee f039      	BREQ _0x202004C
000bef 940e 1b37 	CALL SUBOPT_0x32
000bf1 940e 1b32 	CALL SUBOPT_0x31
000bf3 940e 1e78 	CALL __CPD21
000bf5 f020      	BRLO _0x202004B
                 _0x202004C:
000bf6 940e 1a64 	CALL SUBOPT_0x19
000bf8 940e 1b3a 	CALL SUBOPT_0x33
                 _0x202004B:
000bfa c01c      	RJMP _0x202004E
                 _0x202004A:
000bfb 940e 1b3f 	CALL SUBOPT_0x34
000bfd 940e 1b44 	CALL SUBOPT_0x35
000bff 940e 1b49 	CALL SUBOPT_0x36
000c01 940e 1b50 	CALL SUBOPT_0x37
000c03 940e 1a5c 	CALL SUBOPT_0x18
000c05 f418      	BRSH _0x202004F
000c06 940e 1a64 	CALL SUBOPT_0x19
000c08 c08c      	RJMP _0x2100013
                 _0x202004F:
000c09 940e 1b37 	CALL SUBOPT_0x32
000c0b 940e 1b50 	CALL SUBOPT_0x37
000c0d 940e 1e78 	CALL __CPD21
000c0f f418      	BRSH _0x2020050
000c10 940e 1b55 	CALL SUBOPT_0x38
000c12 c082      	RJMP _0x2100013
                 _0x2020050:
000c13 940e 1b2d 	CALL SUBOPT_0x30
000c15 940e 1b3a 	CALL SUBOPT_0x33
                 _0x202004E:
000c17 940e 1b5a 	CALL SUBOPT_0x39
000c19 940e 1b5f 	CALL SUBOPT_0x3A
                 _0x2020052:
000c1b 940e 1a12 	CALL SUBOPT_0xD
                +
000c1d 5fef     +SUBI R30 , LOW ( - 1 )
000c1e 4fff     +SBCI R31 , HIGH ( - 1 )
000c1f 4f6f     +SBCI R22 , BYTE3 ( - 1 )
000c20 4f7f     +SBCI R23 , BYTE4 ( - 1 )
                 	__SUBD1N -1
000c21 940e 1b5f 	CALL SUBOPT_0x3A
000c23 940e 1b37 	CALL SUBOPT_0x32
000c25 940e 1a57 	CALL SUBOPT_0x17
000c27 940e 1e78 	CALL __CPD21
000c29 f060      	BRLO _0x2020054
                +
000c2a e0e2     +LDI R30 , LOW ( 0x2 )
000c2b e0f0     +LDI R31 , HIGH ( 0x2 )
000c2c e060     +LDI R22 , BYTE3 ( 0x2 )
000c2d e070     +LDI R23 , BYTE4 ( 0x2 )
                 	__GETD1N 0x2
000c2e 940e 1b5f 	CALL SUBOPT_0x3A
000c30 940e 1b64 	CALL SUBOPT_0x3B
000c32 f418      	BRSH _0x2020055
000c33 940e 1b69 	CALL SUBOPT_0x3C
000c35 c05f      	RJMP _0x2100013
                 _0x2020055:
                 _0x2020054:
000c36 940e 1b3f 	CALL SUBOPT_0x34
000c38 940e 1ad8 	CALL SUBOPT_0x25
000c3a 940e 1b49 	CALL SUBOPT_0x36
000c3c 940e 1b6e 	CALL SUBOPT_0x3D
000c3e f0a1      	BREQ _0x2020053
000c3f 940e 1b50 	CALL SUBOPT_0x37
000c41 940e 1b0f 	CALL SUBOPT_0x2C
000c43 f029      	BREQ _0x2020058
000c44 940e 1b50 	CALL SUBOPT_0x37
000c46 940e 1b07 	CALL SUBOPT_0x2B
000c48 f419      	BRNE _0x2020057
                 _0x2020058:
000c49 940e 1b55 	CALL SUBOPT_0x38
000c4b c049      	RJMP _0x2100013
                 _0x2020057:
000c4c 940e 1b64 	CALL SUBOPT_0x3B
000c4e f419      	BRNE _0x202005A
000c4f 940e 1b69 	CALL SUBOPT_0x3C
000c51 c043      	RJMP _0x2100013
                 _0x202005A:
000c52 cfc8      	RJMP _0x2020052
                 _0x2020053:
000c53 940e 1b3f 	CALL SUBOPT_0x34
                +
000c55 85ea     +LDD R30 , Y + 10
000c56 85fb     +LDD R31 , Y + 10 + 1
000c57 856c     +LDD R22 , Y + 10 + 2
000c58 857d     +LDD R23 , Y + 10 + 3
                 	__GETD1S 10
000c59 940e 1e52 	CALL __PUTPARD1
                +
000c5b efaf     +LDI R26 , LOW ( 0xFFFFFFF )
000c5c efbf     +LDI R27 , HIGH ( 0xFFFFFFF )
000c5d ef8f     +LDI R24 , BYTE3 ( 0xFFFFFFF )
000c5e e09f     +LDI R25 , BYTE4 ( 0xFFFFFFF )
                 	__GETD2N 0xFFFFFFF
000c5f de7b      	RCALL _put_fat
000c60 30e0      	CPI  R30,0
000c61 f019      	BREQ _0x202005B
000c62 940e 1ab0 	CALL SUBOPT_0x21
000c64 c030      	RJMP _0x2100013
                 _0x202005B:
000c65 940e 1b2d 	CALL SUBOPT_0x30
000c67 940e 1e69 	CALL __CPD10
000c69 f071      	BREQ _0x202005C
000c6a 940e 1b3f 	CALL SUBOPT_0x34
000c6c 940e 1b72 	CALL SUBOPT_0x3E
000c6e 940e 1e52 	CALL __PUTPARD1
000c70 940e 1ab5 	CALL SUBOPT_0x22
000c72 de68      	RCALL _put_fat
000c73 30e0      	CPI  R30,0
000c74 f019      	BREQ _0x202005D
000c75 940e 1ab0 	CALL SUBOPT_0x21
000c77 c01d      	RJMP _0x2100013
                 _0x202005D:
                 _0x202005C:
000c78 940e 1a12 	CALL SUBOPT_0xD
                +
000c7a 89ac     +LDD R26 , Y + 20
000c7b 89bd     +LDD R27 , Y + 20 + 1
000c7c 961a     +ADIW R26 , 10
000c7d 940e 1e30+CALL __PUTDP1
                 	__PUTD1SNS 20,10
000c7f 89ec      	LDD  R30,Y+20
000c80 89fd      	LDD  R31,Y+20+1
000c81 940e 1b17 	CALL SUBOPT_0x2D
000c83 f079      	BREQ _0x202005E
000c84 89ac      	LDD  R26,Y+20
000c85 89bd      	LDD  R27,Y+20+1
000c86 961e      	ADIW R26,14
000c87 940e 1e2b 	CALL __GETD1P_INC
000c89 9731      	SBIW R30,1
000c8a 4060      	SBCI R22,0
000c8b 4070      	SBCI R23,0
000c8c 940e 1e35 	CALL __PUTDP1_DEC
000c8e 89ac      	LDD  R26,Y+20
000c8f 89bd      	LDD  R27,Y+20+1
000c90 9615      	ADIW R26,5
000c91 e0e1      	LDI  R30,LOW(1)
000c92 93ec      	ST   X,R30
                 _0x202005E:
000c93 940e 1a12 	CALL SUBOPT_0xD
                 _0x2100013:
000c95 9666      	ADIW R28,22
000c96 9508      	RET
                 ; .FEND
                 _clust2sect:
                 ; .FSTART _clust2sect
000c97 940e 1e57 	CALL __PUTPARD2
000c99 940e 1b37 	CALL SUBOPT_0x32
                +
000c9b 50e2     +SUBI R30 , LOW ( 2 )
000c9c 40f0     +SBCI R31 , HIGH ( 2 )
000c9d 4060     +SBCI R22 , BYTE3 ( 2 )
000c9e 4070     +SBCI R23 , BYTE4 ( 2 )
                 	__SUBD1N 2
000c9f 940e 1b2a 	CALL SUBOPT_0x2F
000ca1 81ec      	LDD  R30,Y+4
000ca2 81fd      	LDD  R31,Y+4+1
                +
000ca3 8da6     +LDD R26 , Z + 30
000ca4 8db7     +LDD R27 , Z + 30 + 1
000ca5 a180     +LDD R24 , Z + 30 + 2
000ca6 a191     +LDD R25 , Z + 30 + 3
                 	__GETD2Z 30
                +
000ca7 e0e2     +LDI R30 , LOW ( 0x2 )
000ca8 e0f0     +LDI R31 , HIGH ( 0x2 )
000ca9 e060     +LDI R22 , BYTE3 ( 0x2 )
000caa e070     +LDI R23 , BYTE4 ( 0x2 )
                 	__GETD1N 0x2
000cab 940e 1b77 	CALL SUBOPT_0x3F
000cad 940e 1e43 	CALL __GETD2S0
000caf 940e 1e78 	CALL __CPD21
000cb1 f018      	BRLO _0x202005F
000cb2 940e 1b69 	CALL SUBOPT_0x3C
000cb4 c3c4      	RJMP _0x210000D
                 _0x202005F:
000cb5 81ec      	LDD  R30,Y+4
000cb6 81fd      	LDD  R31,Y+4+1
000cb7 81e2      	LDD  R30,Z+2
000cb8 e0f0      	LDI  R31,0
000cb9 940e 1e43 	CALL __GETD2S0
000cbb 940e 1da2 	CALL __CWD1
000cbd 940e 1da7 	CALL __MULD12U
000cbf 937f      	PUSH R23
000cc0 936f      	PUSH R22
000cc1 93ff      	PUSH R31
000cc2 93ef      	PUSH R30
000cc3 81ac      	LDD  R26,Y+4
000cc4 81bd      	LDD  R27,Y+4+1
000cc5 969a      	ADIW R26,42
000cc6 940e 1e25 	CALL __GETD1P
000cc8 91af      	POP  R26
000cc9 91bf      	POP  R27
000cca 918f      	POP  R24
000ccb 919f      	POP  R25
000ccc 940e 1d44 	CALL __ADDD12
000cce c3aa      	RJMP _0x210000D
                 ; .FEND
                 _dir_seek_G101:
                 ; .FSTART _dir_seek_G101
000ccf 93ba      	ST   -Y,R27
000cd0 93aa      	ST   -Y,R26
000cd1 9724      	SBIW R28,4
000cd2 931a      	ST   -Y,R17
000cd3 930a      	ST   -Y,R16
000cd4 81ee      	LDD  R30,Y+6
000cd5 81ff      	LDD  R31,Y+6+1
                +
000cd6 85a8     +LDD R26 , Y + 8
000cd7 85b9     +LDD R27 , Y + 8 + 1
000cd8 9614     +ADIW R26 , 4
000cd9 93ed     +ST X + , R30
000cda 93fc     +ST X , R31
                 	__PUTW1SNS 8,4
000cdb 85a8      	LDD  R26,Y+8
000cdc 85b9      	LDD  R27,Y+8+1
000cdd 9616      	ADIW R26,6
000cde 940e 1b7c 	CALL SUBOPT_0x40
000ce0 940e 1b83 	CALL SUBOPT_0x41
000ce2 940e 1b07 	CALL SUBOPT_0x2B
000ce4 f029      	BREQ _0x2020061
000ce5 940e 1b88 	CALL SUBOPT_0x42
000ce7 940e 1b8d 	CALL SUBOPT_0x43
000ce9 f010      	BRLO _0x2020060
                 _0x2020061:
000cea e0e2      	LDI  R30,LOW(2)
000ceb c076      	RJMP _0x2100012
                 _0x2020060:
000cec 940e 1b95 	CALL SUBOPT_0x44
000cee f429      	BRNE _0x2020064
000cef 940e 1b88 	CALL SUBOPT_0x42
000cf1 81a0      	LD   R26,Z
000cf2 30a3      	CPI  R26,LOW(0x3)
000cf3 f009      	BREQ _0x2020065
                 _0x2020064:
000cf4 c006      	RJMP _0x2020063
                 _0x2020065:
000cf5 940e 1b88 	CALL SUBOPT_0x42
000cf7 96b6      	ADIW R30,38
000cf8 01df      	MOVW R26,R30
000cf9 940e 1b7c 	CALL SUBOPT_0x40
                 _0x2020063:
000cfb 940e 1b95 	CALL SUBOPT_0x44
000cfd f4a1      	BRNE _0x2020066
000cfe 940e 1b9c 	CALL SUBOPT_0x45
000d00 9638      	ADIW R30,8
000d01 01df      	MOVW R26,R30
000d02 940e 1e21 	CALL __GETW1P
000d04 81ae      	LDD  R26,Y+6
000d05 81bf      	LDD  R27,Y+6+1
000d06 17ae      	CP   R26,R30
000d07 07bf      	CPC  R27,R31
000d08 f010      	BRLO _0x2020067
000d09 e0e2      	LDI  R30,LOW(2)
000d0a c057      	RJMP _0x2100012
                 _0x2020067:
000d0b 940e 1b88 	CALL SUBOPT_0x42
000d0d 96b6      	ADIW R30,38
000d0e 01df      	MOVW R26,R30
000d0f 940e 1e25 	CALL __GETD1P
000d11 c035      	RJMP _0x202027B
                 _0x2020066:
000d12 940e 1b88 	CALL SUBOPT_0x42
000d14 81e2      	LDD  R30,Z+2
000d15 e1a0      	LDI  R26,LOW(16)
000d16 9fea      	MUL  R30,R26
000d17 0180      	MOVW R16,R0
                 _0x2020069:
000d18 81ae      	LDD  R26,Y+6
000d19 81bf      	LDD  R27,Y+6+1
000d1a 17a0      	CP   R26,R16
000d1b 07b1      	CPC  R27,R17
000d1c f118      	BRLO _0x202006B
000d1d 940e 1b88 	CALL SUBOPT_0x42
000d1f 93fa      	ST   -Y,R31
000d20 93ea      	ST   -Y,R30
000d21 940e 1b32 	CALL SUBOPT_0x31
000d23 dd39      	RCALL _get_fat
000d24 940e 1ba6 	CALL SUBOPT_0x46
000d26 940e 1b83 	CALL SUBOPT_0x41
000d28 940e 1b0f 	CALL SUBOPT_0x2C
000d2a f411      	BRNE _0x202006C
000d2b e0e1      	LDI  R30,LOW(1)
000d2c c035      	RJMP _0x2100012
                 _0x202006C:
000d2d 940e 1b83 	CALL SUBOPT_0x41
000d2f 940e 1a5c 	CALL SUBOPT_0x18
000d31 f028      	BRLO _0x202006E
000d32 940e 1b88 	CALL SUBOPT_0x42
000d34 940e 1b8d 	CALL SUBOPT_0x43
000d36 f010      	BRLO _0x202006D
                 _0x202006E:
000d37 e0e2      	LDI  R30,LOW(2)
000d38 c029      	RJMP _0x2100012
                 _0x202006D:
000d39 81ee      	LDD  R30,Y+6
000d3a 81ff      	LDD  R31,Y+6+1
000d3b 1be0      	SUB  R30,R16
000d3c 0bf1      	SBC  R31,R17
000d3d 83ee      	STD  Y+6,R30
000d3e 83ff      	STD  Y+6+1,R31
000d3f cfd8      	RJMP _0x2020069
                 _0x202006B:
000d40 940e 1b9c 	CALL SUBOPT_0x45
000d42 93fa      	ST   -Y,R31
000d43 93ea      	ST   -Y,R30
000d44 940e 1b32 	CALL SUBOPT_0x31
000d46 df50      	RCALL _clust2sect
                 _0x202027B:
000d47 01df      	MOVW R26,R30
000d48 01cb      	MOVW R24,R22
000d49 81ee      	LDD  R30,Y+6
000d4a 81ff      	LDD  R31,Y+6+1
000d4b 940e 1d8a 	CALL __LSRW4
000d4d 940e 1bab 	CALL SUBOPT_0x47
                +
000d4f 85a8     +LDD R26 , Y + 8
000d50 85b9     +LDD R27 , Y + 8 + 1
000d51 961e     +ADIW R26 , 14
000d52 940e 1e30+CALL __PUTDP1
                 	__PUTD1SNS 8,14
000d54 940e 1b88 	CALL SUBOPT_0x42
000d56 96f2      	ADIW R30,50
000d57 01df      	MOVW R26,R30
000d58 81ee      	LDD  R30,Y+6
000d59 81ff      	LDD  R31,Y+6+1
000d5a 940e 1bb0 	CALL SUBOPT_0x48
                +
000d5c 85a8     +LDD R26 , Y + 8
000d5d 85b9     +LDD R27 , Y + 8 + 1
000d5e 9652     +ADIW R26 , 18
000d5f 93ed     +ST X + , R30
000d60 93fc     +ST X , R31
                 	__PUTW1SNS 8,18
000d61 e0e0      	LDI  R30,LOW(0)
                 _0x2100012:
000d62 8119      	LDD  R17,Y+1
000d63 8108      	LDD  R16,Y+0
000d64 962a      	ADIW R28,10
000d65 9508      	RET
                 ; .FEND
                 _dir_next_G101:
                 ; .FSTART _dir_next_G101
000d66 93aa      	ST   -Y,R26
000d67 9724      	SBIW R28,4
000d68 940e 1e7f 	CALL __SAVELOCR4
000d6a 85a9      	LDD  R26,Y+9
000d6b 85ba      	LDD  R27,Y+9+1
000d6c 9614      	ADIW R26,4
000d6d 940e 1e21 	CALL __GETW1P
000d6f 9631      	ADIW R30,1
000d70 018f      	MOVW R16,R30
000d71 2e00      	MOV  R0,R16
000d72 2a01      	OR   R0,R17
000d73 f031      	BREQ _0x2020071
000d74 85a9      	LDD  R26,Y+9
000d75 85ba      	LDD  R27,Y+9+1
000d76 961e      	ADIW R26,14
000d77 940e 1bb8 	CALL SUBOPT_0x49
000d79 f411      	BRNE _0x2020070
                 _0x2020071:
000d7a e0e4      	LDI  R30,LOW(4)
000d7b c0d3      	RJMP _0x2100010
                 _0x2020070:
000d7c 01f8      	MOVW R30,R16
000d7d 70ef      	ANDI R30,LOW(0xF)
000d7e f009      	BREQ PC+2
000d7f c0bc      	RJMP _0x2020073
000d80 940e 1b1c 	CALL SUBOPT_0x2E
000d82 961a      	ADIW R26,10
000d83 940e 1bb8 	CALL SUBOPT_0x49
000d85 f461      	BRNE _0x2020074
000d86 940e 1bbd 	CALL SUBOPT_0x4A
000d88 9638      	ADIW R30,8
000d89 01df      	MOVW R26,R30
000d8a 940e 1e21 	CALL __GETW1P
000d8c 170e      	CP   R16,R30
000d8d 071f      	CPC  R17,R31
000d8e f010      	BRLO _0x2020075
000d8f e0e4      	LDI  R30,LOW(4)
000d90 c0be      	RJMP _0x2100010
                 _0x2020075:
000d91 c0aa      	RJMP _0x2020076
                 _0x2020074:
000d92 01f8      	MOVW R30,R16
000d93 940e 1d8a 	CALL __LSRW4
000d95 010f      	MOVW R0,R30
000d96 940e 1bbd 	CALL SUBOPT_0x4A
000d98 81e2      	LDD  R30,Z+2
000d99 e0f0      	LDI  R31,0
000d9a 9731      	SBIW R30,1
000d9b 21e0      	AND  R30,R0
000d9c 21f1      	AND  R31,R1
000d9d 9730      	SBIW R30,0
000d9e f009      	BREQ PC+2
000d9f c09c      	RJMP _0x2020077
000da0 940e 1bbd 	CALL SUBOPT_0x4A
000da2 940e 1bc2 	CALL SUBOPT_0x4B
000da4 dcb8      	RCALL _get_fat
000da5 940e 1b3a 	CALL SUBOPT_0x33
000da7 940e 1b32 	CALL SUBOPT_0x31
000da9 940e 1a5c 	CALL SUBOPT_0x18
000dab f410      	BRSH _0x2020078
000dac e0e2      	LDI  R30,LOW(2)
000dad c0a1      	RJMP _0x2100010
                 _0x2020078:
000dae 940e 1b32 	CALL SUBOPT_0x31
000db0 940e 1b0f 	CALL SUBOPT_0x2C
000db2 f411      	BRNE _0x2020079
000db3 e0e1      	LDI  R30,LOW(1)
000db4 c09a      	RJMP _0x2100010
                 _0x2020079:
000db5 940e 1bbd 	CALL SUBOPT_0x4A
000db7 967e      	ADIW R30,30
000db8 01df      	MOVW R26,R30
000db9 940e 1e25 	CALL __GETD1P
000dbb 940e 1b32 	CALL SUBOPT_0x31
000dbd 940e 1e78 	CALL __CPD21
000dbf f408      	BRSH PC+2
000dc0 c06b      	RJMP _0x202007A
000dc1 85e8      	LDD  R30,Y+8
000dc2 30e0      	CPI  R30,0
000dc3 f411      	BRNE _0x202007B
000dc4 e0e4      	LDI  R30,LOW(4)
000dc5 c089      	RJMP _0x2100010
                 _0x202007B:
000dc6 940e 1bbd 	CALL SUBOPT_0x4A
000dc8 940e 1bc2 	CALL SUBOPT_0x4B
000dca de0b      	RCALL _create_chain_G101
000dcb 940e 1bcb 	CALL SUBOPT_0x4C
000dcd 940e 1e69 	CALL __CPD10
000dcf f411      	BRNE _0x202007C
000dd0 e0e7      	LDI  R30,LOW(7)
000dd1 c07d      	RJMP _0x2100010
                 _0x202007C:
000dd2 940e 1b32 	CALL SUBOPT_0x31
000dd4 940e 1b07 	CALL SUBOPT_0x2B
000dd6 f411      	BRNE _0x202007D
000dd7 e0e2      	LDI  R30,LOW(2)
000dd8 c076      	RJMP _0x2100010
                 _0x202007D:
000dd9 940e 1b32 	CALL SUBOPT_0x31
000ddb 940e 1b0f 	CALL SUBOPT_0x2C
000ddd f411      	BRNE _0x202007E
000dde e0e1      	LDI  R30,LOW(1)
000ddf c06f      	RJMP _0x2100010
                 _0x202007E:
000de0 940e 1bbd 	CALL SUBOPT_0x4A
000de2 940e 1bcd 	CALL SUBOPT_0x4D
000de4 f011      	BREQ _0x202007F
000de5 e0e1      	LDI  R30,LOW(1)
000de6 c068      	RJMP _0x2100010
                 _0x202007F:
000de7 940e 1bbd 	CALL SUBOPT_0x4A
000de9 940e 1a38 	CALL SUBOPT_0x13
000deb 940e 1bbd 	CALL SUBOPT_0x4A
000ded 01df      	MOVW R26,R30
000dee 96be      	ADIW R30,46
000def 93ff      	PUSH R31
000df0 93ef      	PUSH R30
000df1 01fd      	MOVW R30,R26
000df2 940e 1bd4 	CALL SUBOPT_0x4E
000df4 91af      	POP  R26
000df5 91bf      	POP  R27
000df6 940e 1e30 	CALL __PUTDP1
000df8 e030      	LDI  R19,LOW(0)
                 _0x2020081:
000df9 940e 1bbd 	CALL SUBOPT_0x4A
000dfb 81e2      	LDD  R30,Z+2
000dfc 173e      	CP   R19,R30
000dfd f4d0      	BRSH _0x2020082
000dfe 940e 1bbd 	CALL SUBOPT_0x4A
000e00 9634      	ADIW R30,4
000e01 e0a1      	LDI  R26,LOW(1)
000e02 83a0      	STD  Z+0,R26
000e03 940e 1bbd 	CALL SUBOPT_0x4A
000e05 940e 1bcd 	CALL SUBOPT_0x4D
000e07 f011      	BREQ _0x2020083
000e08 e0e1      	LDI  R30,LOW(1)
000e09 c045      	RJMP _0x2100010
                 _0x2020083:
000e0a 940e 1bbd 	CALL SUBOPT_0x4A
000e0c 96be      	ADIW R30,46
000e0d 01df      	MOVW R26,R30
000e0e 940e 1e2b 	CALL __GETD1P_INC
                +
000e10 5fef     +SUBI R30 , LOW ( - 1 )
000e11 4fff     +SBCI R31 , HIGH ( - 1 )
000e12 4f6f     +SBCI R22 , BYTE3 ( - 1 )
000e13 4f7f     +SBCI R23 , BYTE4 ( - 1 )
                 	__SUBD1N -1
000e14 940e 1e35 	CALL __PUTDP1_DEC
000e16 5f3f      	SUBI R19,-1
000e17 cfe1      	RJMP _0x2020081
                 _0x2020082:
000e18 940e 1bbd 	CALL SUBOPT_0x4A
000e1a 96be      	ADIW R30,46
000e1b 93ff      	PUSH R31
000e1c 93ef      	PUSH R30
000e1d 01df      	MOVW R26,R30
000e1e 940e 1e25 	CALL __GETD1P
000e20 01df      	MOVW R26,R30
000e21 01cb      	MOVW R24,R22
000e22 2fe3      	MOV  R30,R19
000e23 e0f0      	LDI  R31,0
000e24 940e 1da2 	CALL __CWD1
000e26 940e 1b77 	CALL SUBOPT_0x3F
000e28 91af      	POP  R26
000e29 91bf      	POP  R27
000e2a 940e 1e30 	CALL __PUTDP1
                 _0x202007A:
000e2c 940e 1b5a 	CALL SUBOPT_0x39
                +
000e2e 85a9     +LDD R26 , Y + 9
000e2f 85ba     +LDD R27 , Y + 9 + 1
000e30 961a     +ADIW R26 , 10
000e31 940e 1e30+CALL __PUTDP1
                 	__PUTD1SNS 9,10
000e33 940e 1bbd 	CALL SUBOPT_0x4A
000e35 940e 1bd4 	CALL SUBOPT_0x4E
                +
000e37 85a9     +LDD R26 , Y + 9
000e38 85ba     +LDD R27 , Y + 9 + 1
000e39 961e     +ADIW R26 , 14
000e3a 940e 1e30+CALL __PUTDP1
                 	__PUTD1SNS 9,14
                 _0x2020077:
                 _0x2020076:
                 _0x2020073:
000e3c 01f8      	MOVW R30,R16
                +
000e3d 85a9     +LDD R26 , Y + 9
000e3e 85ba     +LDD R27 , Y + 9 + 1
000e3f 9614     +ADIW R26 , 4
000e40 93ed     +ST X + , R30
000e41 93fc     +ST X , R31
                 	__PUTW1SNS 9,4
000e42 940e 1bbd 	CALL SUBOPT_0x4A
000e44 96f2      	ADIW R30,50
000e45 01df      	MOVW R26,R30
000e46 01f8      	MOVW R30,R16
000e47 940e 1bb0 	CALL SUBOPT_0x48
                +
000e49 85a9     +LDD R26 , Y + 9
000e4a 85ba     +LDD R27 , Y + 9 + 1
000e4b 9652     +ADIW R26 , 18
000e4c 93ed     +ST X + , R30
000e4d 93fc     +ST X , R31
                 	__PUTW1SNS 9,18
000e4e e0e0      	LDI  R30,LOW(0)
                 _0x2100010:
000e4f 940e 1e86 	CALL __LOADLOCR4
                 _0x2100011:
000e51 962b      	ADIW R28,11
000e52 9508      	RET
                 ; .FEND
                 _dir_find_G101:
                 ; .FSTART _dir_find_G101
000e53 940e 1bdc 	CALL SUBOPT_0x4F
000e55 940e 1be1 	CALL SUBOPT_0x50
000e57 940e 1be7 	CALL SUBOPT_0x51
000e59 f021      	BREQ _0x2020084
000e5a 2fe1      	MOV  R30,R17
000e5b 940e 1e86 	CALL __LOADLOCR4
000e5d c21b      	RJMP _0x210000D
                 _0x2020084:
                 _0x2020086:
000e5e 940e 1bed 	CALL SUBOPT_0x52
000e60 f4b9      	BRNE _0x2020087
000e61 940e 1bfa 	CALL SUBOPT_0x53
000e63 f411      	BRNE _0x2020089
000e64 e014      	LDI  R17,LOW(4)
000e65 c012      	RJMP _0x2020087
                 _0x2020089:
000e66 01f9      	MOVW R30,R18
000e67 85e3      	LDD  R30,Z+11
000e68 70e8      	ANDI R30,LOW(0x8)
000e69 f431      	BRNE _0x202008B
000e6a 940e 1c03 	CALL SUBOPT_0x54
000e6c 940e 1904 	CALL _memcmp
000e6e 30e0      	CPI  R30,0
000e6f f009      	BREQ _0x202008C
                 _0x202008B:
000e70 c001      	RJMP _0x202008A
                 _0x202008C:
000e71 c006      	RJMP _0x2020087
                 _0x202008A:
000e72 940e 1be1 	CALL SUBOPT_0x50
000e74 def1      	RCALL _dir_next_G101
000e75 2f1e      	MOV  R17,R30
000e76 3010      	CPI  R17,0
000e77 f331      	BREQ _0x2020086
                 _0x2020087:
000e78 2fe1      	MOV  R30,R17
000e79 940e 1e86 	CALL __LOADLOCR4
000e7b c1fd      	RJMP _0x210000D
                 ; .FEND
                 _dir_read_G101:
                 ; .FSTART _dir_read_G101
000e7c 940e 1bdc 	CALL SUBOPT_0x4F
000e7e e014      	LDI  R17,LOW(4)
                 _0x202008D:
000e7f 81ac      	LDD  R26,Y+4
000e80 81bd      	LDD  R27,Y+4+1
000e81 961e      	ADIW R26,14
000e82 940e 1bb8 	CALL SUBOPT_0x49
000e84 f0d9      	BREQ _0x202008F
000e85 940e 1bed 	CALL SUBOPT_0x52
000e87 f4c1      	BRNE _0x202008F
000e88 940e 1bfa 	CALL SUBOPT_0x53
000e8a f411      	BRNE _0x2020091
000e8b e014      	LDI  R17,LOW(4)
000e8c c013      	RJMP _0x202008F
                 _0x2020091:
000e8d 3e05      	CPI  R16,229
000e8e f049      	BREQ _0x2020093
000e8f e0e1      	LDI  R30,LOW(1)
000e90 30e0      	CPI  R30,0
000e91 f411      	BRNE _0x2020094
000e92 320e      	CPI  R16,46
000e93 f021      	BREQ _0x2020093
                 _0x2020094:
000e94 01f9      	MOVW R30,R18
000e95 85e3      	LDD  R30,Z+11
000e96 70e8      	ANDI R30,LOW(0x8)
000e97 f009      	BREQ _0x2020096
                 _0x2020093:
000e98 c001      	RJMP _0x2020092
                 _0x2020096:
000e99 c006      	RJMP _0x202008F
                 _0x2020092:
000e9a 940e 1be1 	CALL SUBOPT_0x50
000e9c dec9      	RCALL _dir_next_G101
000e9d 2f1e      	MOV  R17,R30
000e9e 3010      	CPI  R17,0
000e9f f2f9      	BREQ _0x202008D
                 _0x202008F:
000ea0 3010      	CPI  R17,0
000ea1 f029      	BREQ _0x2020098
000ea2 81ac      	LDD  R26,Y+4
000ea3 81bd      	LDD  R27,Y+4+1
000ea4 961e      	ADIW R26,14
000ea5 940e 1c0e 	CALL SUBOPT_0x55
                 _0x2020098:
000ea7 2fe1      	MOV  R30,R17
000ea8 940e 1e86 	CALL __LOADLOCR4
000eaa c1ce      	RJMP _0x210000D
                 ; .FEND
                 _dir_register_G101:
                 ; .FSTART _dir_register_G101
000eab 940e 1bdc 	CALL SUBOPT_0x4F
000ead 940e 1be1 	CALL SUBOPT_0x50
000eaf 940e 1be7 	CALL SUBOPT_0x51
000eb1 f4b1      	BRNE _0x2020099
                 _0x202009B:
000eb2 940e 1bed 	CALL SUBOPT_0x52
000eb4 f499      	BRNE _0x202009C
000eb5 81ec      	LDD  R30,Y+4
000eb6 81fd      	LDD  R31,Y+4+1
000eb7 89a2      	LDD  R26,Z+18
000eb8 89b3      	LDD  R27,Z+19
000eb9 910c      	LD   R16,X
000eba 3e05      	CPI  R16,229
000ebb f011      	BREQ _0x202009F
000ebc 3000      	CPI  R16,0
000ebd f409      	BRNE _0x202009E
                 _0x202009F:
000ebe c009      	RJMP _0x202009C
                 _0x202009E:
000ebf 81ec      	LDD  R30,Y+4
000ec0 81fd      	LDD  R31,Y+4+1
000ec1 93fa      	ST   -Y,R31
000ec2 93ea      	ST   -Y,R30
000ec3 e0a1      	LDI  R26,LOW(1)
000ec4 dea1      	RCALL _dir_next_G101
000ec5 2f1e      	MOV  R17,R30
000ec6 3010      	CPI  R17,0
000ec7 f351      	BREQ _0x202009B
                 _0x202009C:
                 _0x2020099:
000ec8 3010      	CPI  R17,0
000ec9 f529      	BRNE _0x20200A1
000eca 940e 1bed 	CALL SUBOPT_0x52
000ecc f511      	BRNE _0x20200A2
000ecd 81ac      	LDD  R26,Y+4
000ece 81bd      	LDD  R27,Y+4+1
000ecf 9652      	ADIW R26,18
000ed0 912d      	LD   R18,X+
000ed1 913c      	LD   R19,X
000ed2 933a      	ST   -Y,R19
000ed3 932a      	ST   -Y,R18
000ed4 e0e0      	LDI  R30,LOW(0)
000ed5 93ea      	ST   -Y,R30
000ed6 e2a0      	LDI  R26,LOW(32)
000ed7 e0b0      	LDI  R27,0
000ed8 940e 192f 	CALL _memset
000eda 940e 1c03 	CALL SUBOPT_0x54
000edc 940e 191d 	CALL _memcpy
000ede 81ac      	LDD  R26,Y+4
000edf 81bd      	LDD  R27,Y+4+1
000ee0 9654      	ADIW R26,20
000ee1 940e 1e21 	CALL __GETW1P
000ee3 85e3      	LDD  R30,Z+11
000ee4 71e8      	ANDI R30,LOW(0x18)
                +
000ee5 01d9     +MOVW R26 , R18
000ee6 961c     +ADIW R26 , 12
000ee7 93ec     +ST X , R30
                 	__PUTB1RNS 18,12
000ee8 81ac      	LDD  R26,Y+4
000ee9 81bd      	LDD  R27,Y+4+1
000eea 940e 1e21 	CALL __GETW1P
000eec 9634      	ADIW R30,4
000eed e0a1      	LDI  R26,LOW(1)
000eee 83a0      	STD  Z+0,R26
                 _0x20200A2:
                 _0x20200A1:
000eef 2fe1      	MOV  R30,R17
000ef0 940e 1e86 	CALL __LOADLOCR4
000ef2 c186      	RJMP _0x210000D
                 ; .FEND
                 _dir_remove_G101:
                 ; .FSTART _dir_remove_G101
000ef3 940e 1a1e 	CALL SUBOPT_0xF
000ef5 81eb      	LDD  R30,Y+3
000ef6 81fc      	LDD  R31,Y+3+1
000ef7 81a4      	LDD  R26,Z+4
000ef8 81b5      	LDD  R27,Z+5
000ef9 ddd5      	RCALL _dir_seek_G101
000efa 2f1e      	MOV  R17,R30
000efb 3010      	CPI  R17,0
000efc f4d1      	BRNE _0x20200A3
000efd 81a9      	LDD  R26,Y+1
000efe 81ba      	LDD  R27,Y+1+1
000eff 940e 1c12 	CALL SUBOPT_0x56
000f01 81eb      	LDD  R30,Y+3
000f02 81fc      	LDD  R31,Y+3+1
                +
000f03 85a6     +LDD R26 , Z + 14
000f04 85b7     +LDD R27 , Z + 14 + 1
000f05 8980     +LDD R24 , Z + 14 + 2
000f06 8991     +LDD R25 , Z + 14 + 3
                 	__GETD2Z 14
000f07 940e 1a2b 	CALL SUBOPT_0x11
000f09 f469      	BRNE _0x20200A4
000f0a 81e9      	LDD  R30,Y+1
000f0b 81fa      	LDD  R31,Y+1+1
000f0c 89a2      	LDD  R26,Z+18
000f0d 89b3      	LDD  R27,Z+19
000f0e eee5      	LDI  R30,LOW(229)
000f0f 93ec      	ST   X,R30
000f10 81a9      	LDD  R26,Y+1
000f11 81ba      	LDD  R27,Y+1+1
000f12 940e 1e21 	CALL __GETW1P
000f14 9634      	ADIW R30,4
000f15 e0a1      	LDI  R26,LOW(1)
000f16 83a0      	STD  Z+0,R26
                 _0x20200A4:
                 _0x20200A3:
000f17 2fe1      	MOV  R30,R17
000f18 8118      	LDD  R17,Y+0
000f19 9623      	ADIW R28,3
000f1a 9508      	RET
                 ; .FEND
                 _create_name_G101:
                 ; .FSTART _create_name_G101
000f1b 93ba      	ST   -Y,R27
000f1c 93aa      	ST   -Y,R26
000f1d 9725      	SBIW R28,5
000f1e 940e 1e7d 	CALL __SAVELOCR6
000f20 85ad      	LDD  R26,Y+13
000f21 85be      	LDD  R27,Y+13+1
000f22 9654      	ADIW R26,20
000f23 914d      	LD   R20,X+
000f24 915c      	LD   R21,X
000f25 935a      	ST   -Y,R21
000f26 934a      	ST   -Y,R20
000f27 e2e0      	LDI  R30,LOW(32)
000f28 93ea      	ST   -Y,R30
000f29 e0ab      	LDI  R26,LOW(11)
000f2a e0b0      	LDI  R27,0
000f2b 940e 192f 	CALL _memset
000f2d e0e0      	LDI  R30,LOW(0)
000f2e 87e8      	STD  Y+8,R30
000f2f 87e9      	STD  Y+8+1,R30
000f30 2f1e      	MOV  R17,R30
000f31 2f2e      	MOV  R18,R30
000f32 e0e8      	LDI  R30,LOW(8)
000f33 87ea      	STD  Y+10,R30
000f34 85ab      	LDD  R26,Y+11
000f35 85bc      	LDD  R27,Y+11+1
000f36 940e 1c17 	CALL SUBOPT_0x57
000f38 940e 1c1c 	CALL SUBOPT_0x58
000f3a 0fae      	ADD  R26,R30
000f3b 1fbf      	ADC  R27,R31
000f3c 91ac      	LD   R26,X
000f3d 32ae      	CPI  R26,LOW(0x2E)
000f3e f509      	BRNE _0x20200A5
                 _0x20200A7:
000f3f 940e 1c21 	CALL SUBOPT_0x59
000f41 320e      	CPI  R16,46
000f42 f421      	BRNE _0x20200AA
000f43 85a8      	LDD  R26,Y+8
000f44 85b9      	LDD  R27,Y+8+1
000f45 9713      	SBIW R26,3
000f46 f00c      	BRLT _0x20200A9
                 _0x20200AA:
000f47 c003      	RJMP _0x20200A8
                 _0x20200A9:
000f48 940e 1c2d 	CALL SUBOPT_0x5A
000f4a cff4      	RJMP _0x20200A7
                 _0x20200A8:
000f4b 320f      	CPI  R16,47
000f4c f021      	BREQ _0x20200AD
000f4d 350c      	CPI  R16,92
000f4e f011      	BREQ _0x20200AD
000f4f 3201      	CPI  R16,33
000f50 f408      	BRSH _0x20200AE
                 _0x20200AD:
000f51 c002      	RJMP _0x20200AC
                 _0x20200AE:
000f52 e0e6      	LDI  R30,LOW(6)
000f53 c06d      	RJMP _0x210000E
                 _0x20200AC:
000f54 940e 1c1c 	CALL SUBOPT_0x58
000f56 940e 1c34 	CALL SUBOPT_0x5B
000f58 f410      	BRSH _0x20200AF
000f59 e2e4      	LDI  R30,LOW(36)
000f5a c001      	RJMP _0x20200B0
                 _0x20200AF:
000f5b e2e0      	LDI  R30,LOW(32)
                 _0x20200B0:
                +
000f5c 01da     +MOVW R26 , R20
000f5d 961b     +ADIW R26 , 11
000f5e 93ec     +ST X , R30
                 	__PUTB1RNS 20,11
000f5f c060      	RJMP _0x210000F
                 _0x20200A5:
                 _0x20200B3:
000f60 940e 1c21 	CALL SUBOPT_0x59
000f62 3201      	CPI  R16,33
000f63 f020      	BRLO _0x20200B6
000f64 320f      	CPI  R16,47
000f65 f011      	BREQ _0x20200B6
000f66 350c      	CPI  R16,92
000f67 f409      	BRNE _0x20200B5
                 _0x20200B6:
000f68 c032      	RJMP _0x20200B4
                 _0x20200B5:
000f69 320e      	CPI  R16,46
000f6a f019      	BREQ _0x20200B9
000f6b 85ea      	LDD  R30,Y+10
000f6c 172e      	CP   R18,R30
000f6d f068      	BRLO _0x20200B8
                 _0x20200B9:
000f6e 85aa      	LDD  R26,Y+10
000f6f 30a8      	CPI  R26,LOW(0x8)
000f70 f411      	BRNE _0x20200BC
000f71 320e      	CPI  R16,46
000f72 f011      	BREQ _0x20200BB
                 _0x20200BC:
000f73 e0e6      	LDI  R30,LOW(6)
000f74 c04c      	RJMP _0x210000E
                 _0x20200BB:
000f75 e028      	LDI  R18,LOW(8)
000f76 e0eb      	LDI  R30,LOW(11)
000f77 87ea      	STD  Y+10,R30
000f78 0f11      	LSL  R17
000f79 0f11      	LSL  R17
000f7a c01f      	RJMP _0x20200B2
                 _0x20200B8:
000f7b 3800      	CPI  R16,128
000f7c f018      	BRLO _0x20200BE
000f7d 6013      	ORI  R17,LOW(3)
000f7e e0e6      	LDI  R30,LOW(6)
000f7f c041      	RJMP _0x210000E
                 _0x20200BE:
000f80 edea      	LDI  R30,LOW(_k1*2)
000f81 e0f0      	LDI  R31,HIGH(_k1*2)
000f82 93fa      	ST   -Y,R31
000f83 93ea      	ST   -Y,R30
000f84 2fa0      	MOV  R26,R16
000f85 d9f1      	RCALL _chk_chrf_G101
000f86 9730      	SBIW R30,0
000f87 f011      	BREQ _0x20200C4
000f88 e0e6      	LDI  R30,LOW(6)
000f89 c037      	RJMP _0x210000E
                 _0x20200C4:
000f8a 3401      	CPI  R16,65
000f8b f010      	BRLO _0x20200C6
000f8c 350b      	CPI  R16,91
000f8d f008      	BRLO _0x20200C7
                 _0x20200C6:
000f8e c002      	RJMP _0x20200C5
                 _0x20200C7:
000f8f 6012      	ORI  R17,LOW(2)
000f90 c007      	RJMP _0x20200C8
                 _0x20200C5:
000f91 3601      	CPI  R16,97
000f92 f010      	BRLO _0x20200CA
000f93 370b      	CPI  R16,123
000f94 f008      	BRLO _0x20200CB
                 _0x20200CA:
000f95 c002      	RJMP _0x20200C9
                 _0x20200CB:
000f96 6011      	ORI  R17,LOW(1)
000f97 5200      	SUBI R16,LOW(32)
                 _0x20200C9:
                 _0x20200C8:
000f98 940e 1c2d 	CALL SUBOPT_0x5A
                 _0x20200B2:
000f9a cfc5      	RJMP _0x20200B3
                 _0x20200B4:
000f9b 940e 1c1c 	CALL SUBOPT_0x58
000f9d 940e 1c34 	CALL SUBOPT_0x5B
000f9f f410      	BRSH _0x20200CC
000fa0 e0e4      	LDI  R30,LOW(4)
000fa1 c001      	RJMP _0x20200CD
                 _0x20200CC:
000fa2 e0e0      	LDI  R30,LOW(0)
                 _0x20200CD:
000fa3 2f0e      	MOV  R16,R30
000fa4 3020      	CPI  R18,0
000fa5 f411      	BRNE _0x20200CF
000fa6 e0e6      	LDI  R30,LOW(6)
000fa7 c019      	RJMP _0x210000E
                 _0x20200CF:
000fa8 01da      	MOVW R26,R20
000fa9 91ac      	LD   R26,X
000faa 3ea5      	CPI  R26,LOW(0xE5)
000fab f419      	BRNE _0x20200D0
000fac 01da      	MOVW R26,R20
000fad e0e5      	LDI  R30,LOW(5)
000fae 93ec      	ST   X,R30
                 _0x20200D0:
000faf 85aa      	LDD  R26,Y+10
000fb0 30a8      	CPI  R26,LOW(0x8)
000fb1 f411      	BRNE _0x20200D1
000fb2 0f11      	LSL  R17
000fb3 0f11      	LSL  R17
                 _0x20200D1:
000fb4 2fe1      	MOV  R30,R17
000fb5 70e3      	ANDI R30,LOW(0x3)
000fb6 30e1      	CPI  R30,LOW(0x1)
000fb7 f409      	BRNE _0x20200D2
000fb8 6100      	ORI  R16,LOW(16)
                 _0x20200D2:
000fb9 2fe1      	MOV  R30,R17
000fba 70ec      	ANDI R30,LOW(0xC)
000fbb 30e4      	CPI  R30,LOW(0x4)
000fbc f409      	BRNE _0x20200D3
000fbd 6008      	ORI  R16,LOW(8)
                 _0x20200D3:
000fbe 01fa      	MOVW R30,R20
                +
000fbf 8703     +STD Z + 11 , R16
                 	__PUTBZR 16,11
                 _0x210000F:
000fc0 e0e0      	LDI  R30,LOW(0)
                 _0x210000E:
000fc1 940e 1e84 	CALL __LOADLOCR6
000fc3 962f      	ADIW R28,15
000fc4 9508      	RET
                 ; .FEND
                 _follow_path_G101:
                 ; .FSTART _follow_path_G101
000fc5 940e 1bdc 	CALL SUBOPT_0x4F
                 _0x20200E9:
000fc7 e0e1      	LDI  R30,LOW(1)
000fc8 30e0      	CPI  R30,0
000fc9 f029      	BREQ _0x20200EC
000fca 81ac      	LDD  R26,Y+4
000fcb 81bd      	LDD  R27,Y+4+1
000fcc 91ac      	LD   R26,X
000fcd 32a0      	CPI  R26,LOW(0x20)
000fce f009      	BREQ _0x20200ED
                 _0x20200EC:
000fcf c006      	RJMP _0x20200EB
                 _0x20200ED:
000fd0 81ec      	LDD  R30,Y+4
000fd1 81fd      	LDD  R31,Y+4+1
000fd2 9631      	ADIW R30,1
000fd3 83ec      	STD  Y+4,R30
000fd4 83fd      	STD  Y+4+1,R31
000fd5 cff1      	RJMP _0x20200E9
                 _0x20200EB:
000fd6 81ac      	LDD  R26,Y+4
000fd7 81bd      	LDD  R27,Y+4+1
000fd8 91ac      	LD   R26,X
000fd9 32af      	CPI  R26,LOW(0x2F)
000fda f029      	BREQ _0x20200EF
000fdb 81ac      	LDD  R26,Y+4
000fdc 81bd      	LDD  R27,Y+4+1
000fdd 91ac      	LD   R26,X
000fde 35ac      	CPI  R26,LOW(0x5C)
000fdf f459      	BRNE _0x20200EE
                 _0x20200EF:
000fe0 81ec      	LDD  R30,Y+4
000fe1 81fd      	LDD  R31,Y+4+1
000fe2 9631      	ADIW R30,1
000fe3 83ec      	STD  Y+4,R30
000fe4 83fd      	STD  Y+4+1,R31
000fe5 81ae      	LDD  R26,Y+6
000fe6 81bf      	LDD  R27,Y+6+1
000fe7 9616      	ADIW R26,6
000fe8 940e 1c0e 	CALL SUBOPT_0x55
000fea c00a      	RJMP _0x20200F1
                 _0x20200EE:
000feb 81ae      	LDD  R26,Y+6
000fec 81bf      	LDD  R27,Y+6+1
000fed 940e 1e21 	CALL __GETW1P
000fef 9676      	ADIW R30,22
000ff0 01df      	MOVW R26,R30
000ff1 940e 1e25 	CALL __GETD1P
000ff3 940e 1c3c 	CALL SUBOPT_0x5C
                 _0x20200F1:
000ff5 81ac      	LDD  R26,Y+4
000ff6 81bd      	LDD  R27,Y+4+1
000ff7 91ac      	LD   R26,X
000ff8 27bb      	CLR  R27
000ff9 9790      	SBIW R26,32
000ffa f460      	BRSH _0x20200F2
000ffb 940e 1c42 	CALL SUBOPT_0x5D
000ffd e0a0      	LDI  R26,LOW(0)
000ffe e0b0      	LDI  R27,0
000fff dccf      	RCALL _dir_seek_G101
001000 2f1e      	MOV  R17,R30
001001 81ae      	LDD  R26,Y+6
001002 81bf      	LDD  R27,Y+6+1
001003 9652      	ADIW R26,18
001004 940e 1c47 	CALL SUBOPT_0x5E
001006 c03d      	RJMP _0x20200F3
                 _0x20200F2:
                 _0x20200F5:
001007 940e 1c42 	CALL SUBOPT_0x5D
001009 01de      	MOVW R26,R28
00100a 9616      	ADIW R26,6
00100b df0f      	RCALL _create_name_G101
00100c 2f1e      	MOV  R17,R30
00100d 3010      	CPI  R17,0
00100e f5a9      	BRNE _0x20200F6
00100f 81ae      	LDD  R26,Y+6
001010 81bf      	LDD  R27,Y+6+1
001011 de41      	RCALL _dir_find_G101
001012 2f1e      	MOV  R17,R30
001013 81ae      	LDD  R26,Y+6
001014 81bf      	LDD  R27,Y+6+1
001015 9654      	ADIW R26,20
001016 940e 1e21 	CALL __GETW1P
001018 85e3      	LDD  R30,Z+11
001019 70e4      	ANDI R30,LOW(0x4)
00101a 2f0e      	MOV  R16,R30
00101b 3010      	CPI  R17,0
00101c f039      	BREQ _0x20200F8
00101d 3014      	CPI  R17,4
00101e f411      	BRNE _0x20200FA
00101f 3000      	CPI  R16,0
001020 f009      	BREQ _0x20200FB
                 _0x20200FA:
001021 c001      	RJMP _0x20200F9
                 _0x20200FB:
001022 e015      	LDI  R17,LOW(5)
                 _0x20200F9:
001023 c020      	RJMP _0x20200F6
                 _0x20200F8:
001024 3000      	CPI  R16,0
001025 f4f1      	BRNE _0x20200F6
001026 81ae      	LDD  R26,Y+6
001027 81bf      	LDD  R27,Y+6+1
001028 9652      	ADIW R26,18
001029 912d      	LD   R18,X+
00102a 913c      	LD   R19,X
00102b 01f9      	MOVW R30,R18
00102c 85e3      	LDD  R30,Z+11
00102d 71e0      	ANDI R30,LOW(0x10)
00102e f411      	BRNE _0x20200FD
00102f e015      	LDI  R17,LOW(5)
001030 c013      	RJMP _0x20200F6
                 _0x20200FD:
001031 940e 1c4c 	CALL SUBOPT_0x5F
001033 940e 1d9d 	CALL __LSLD16
001035 937f      	PUSH R23
001036 936f      	PUSH R22
001037 93ff      	PUSH R31
001038 93ef      	PUSH R30
001039 940e 1c4f 	CALL SUBOPT_0x60
00103b 91af      	POP  R26
00103c 91bf      	POP  R27
00103d 918f      	POP  R24
00103e 919f      	POP  R25
00103f 940e 1c54 	CALL SUBOPT_0x61
001041 940e 1c3c 	CALL SUBOPT_0x5C
001043 cfc3      	RJMP _0x20200F5
                 _0x20200F6:
                 _0x20200F3:
001044 2fe1      	MOV  R30,R17
001045 940e 1e86 	CALL __LOADLOCR4
001047 9628      	ADIW R28,8
001048 9508      	RET
                 ; .FEND
                 _check_fs_G101:
                 ; .FSTART _check_fs_G101
001049 940e 1e57 	CALL __PUTPARD2
00104b 81ec      	LDD  R30,Y+4
00104c 81fd      	LDD  R31,Y+4+1
00104d 81a1      	LDD  R26,Z+1
00104e 93aa      	ST   -Y,R26
00104f 81ed      	LDD  R30,Y+5
001050 81fe      	LDD  R31,Y+5+1
001051 96f2      	ADIW R30,50
001052 93fa      	ST   -Y,R31
001053 93ea      	ST   -Y,R30
                +
001054 81eb     +LDD R30 , Y + 3
001055 81fc     +LDD R31 , Y + 3 + 1
001056 816d     +LDD R22 , Y + 3 + 2
001057 817e     +LDD R23 , Y + 3 + 3
                 	__GETD1S 3
001058 940e 1a17 	CALL SUBOPT_0xE
00105a f011      	BREQ _0x20200FE
00105b e0e3      	LDI  R30,LOW(3)
00105c c01c      	RJMP _0x210000D
                 _0x20200FE:
00105d 81ec      	LDD  R30,Y+4
00105e 81fd      	LDD  R31,Y+4+1
00105f 940e 1c59 	CALL SUBOPT_0x62
001061 f011      	BREQ _0x20200FF
001062 e0e2      	LDI  R30,LOW(2)
001063 c015      	RJMP _0x210000D
                 _0x20200FF:
001064 81ac      	LDD  R26,Y+4
001065 81bd      	LDD  R27,Y+4+1
001066 59a8      	SUBI R26,LOW(-104)
001067 4fbf      	SBCI R27,HIGH(-104)
001068 940e 1c63 	CALL SUBOPT_0x63
00106a f411      	BRNE _0x2020100
00106b e0e0      	LDI  R30,LOW(0)
00106c c00c      	RJMP _0x210000D
                 _0x2020100:
00106d 81ec      	LDD  R30,Y+4
00106e 81fd      	LDD  R31,Y+4+1
00106f 96f2      	ADIW R30,50
001070 5aee      	SUBI R30,LOW(-82)
001071 4fff      	SBCI R31,HIGH(-82)
001072 01df      	MOVW R26,R30
001073 940e 1c63 	CALL SUBOPT_0x63
001075 f411      	BRNE _0x2020101
001076 e0e0      	LDI  R30,LOW(0)
001077 c001      	RJMP _0x210000D
                 _0x2020101:
001078 e0e1      	LDI  R30,LOW(1)
                 _0x210000D:
001079 9626      	ADIW R28,6
00107a 9508      	RET
                 ; .FEND
                 _chk_mounted:
                 ; .FSTART _chk_mounted
00107b 93aa      	ST   -Y,R26
00107c 9764      	SBIW R28,20
00107d 940e 1e7d 	CALL __SAVELOCR6
00107f 8dad      	LDD  R26,Y+29
001080 8dbe      	LDD  R27,Y+29+1
001081 940e 1e21 	CALL __GETW1P
001083 87e8      	STD  Y+8,R30
001084 87f9      	STD  Y+8+1,R31
001085 85a8      	LDD  R26,Y+8
001086 85b9      	LDD  R27,Y+8+1
001087 91ec      	LD   R30,X
001088 53e0      	SUBI R30,LOW(48)
001089 2f0e      	MOV  R16,R30
00108a 300a      	CPI  R16,10
00108b f420      	BRSH _0x2020103
00108c 9611      	ADIW R26,1
00108d 91ac      	LD   R26,X
00108e 33aa      	CPI  R26,LOW(0x3A)
00108f f009      	BREQ _0x2020104
                 _0x2020103:
001090 c00a      	RJMP _0x2020102
                 _0x2020104:
001091 85e8      	LDD  R30,Y+8
001092 85f9      	LDD  R31,Y+8+1
001093 9632      	ADIW R30,2
001094 87e8      	STD  Y+8,R30
001095 87f9      	STD  Y+8+1,R31
001096 8dad      	LDD  R26,Y+29
001097 8dbe      	LDD  R27,Y+29+1
001098 93ed      	ST   X+,R30
001099 93fc      	ST   X,R31
00109a c002      	RJMP _0x2020105
                 _0x2020102:
00109b 9100 0ade 	LDS  R16,_Drive_G101
                 _0x2020105:
00109d 3001      	CPI  R16,1
00109e f010      	BRLO _0x2020106
00109f e0eb      	LDI  R30,LOW(11)
0010a0 c1c9      	RJMP _0x210000B
                 _0x2020106:
0010a1 2fe0      	MOV  R30,R16
0010a2 940e 1c71 	CALL SUBOPT_0x64
0010a4 940e 1c17 	CALL SUBOPT_0x57
0010a6 8dab      	LDD  R26,Y+27
0010a7 8dbc      	LDD  R27,Y+27+1
0010a8 93ed      	ST   X+,R30
0010a9 93fc      	ST   X,R31
0010aa 81ee      	LDD  R30,Y+6
0010ab 81ff      	LDD  R31,Y+6+1
0010ac 9730      	SBIW R30,0
0010ad f411      	BRNE _0x2020107
0010ae e0ec      	LDI  R30,LOW(12)
0010af c1ba      	RJMP _0x210000B
                 _0x2020107:
0010b0 81ae      	LDD  R26,Y+6
0010b1 81bf      	LDD  R27,Y+6+1
0010b2 91ec      	LD   R30,X
0010b3 30e0      	CPI  R30,0
0010b4 f089      	BREQ _0x2020108
0010b5 81ee      	LDD  R30,Y+6
0010b6 81ff      	LDD  R31,Y+6+1
0010b7 81a1      	LDD  R26,Z+1
0010b8 940e 066d 	CALL _disk_status
0010ba 2f5e      	MOV  R21,R30
0010bb fd50      	SBRC R21,0
0010bc c009      	RJMP _0x2020109
0010bd 8dea      	LDD  R30,Y+26
0010be 30e0      	CPI  R30,0
0010bf f011      	BREQ _0x202010B
0010c0 fd52      	SBRC R21,2
0010c1 c001      	RJMP _0x202010C
                 _0x202010B:
0010c2 c002      	RJMP _0x202010A
                 _0x202010C:
0010c3 e0ea      	LDI  R30,LOW(10)
0010c4 c1a5      	RJMP _0x210000B
                 _0x202010A:
0010c5 c1a3      	RJMP _0x210000C
                 _0x2020109:
                 _0x2020108:
0010c6 81ae      	LDD  R26,Y+6
0010c7 81bf      	LDD  R27,Y+6+1
0010c8 e0e0      	LDI  R30,LOW(0)
0010c9 93ec      	ST   X,R30
0010ca 2fe0      	MOV  R30,R16
                +
0010cb 81ae     +LDD R26 , Y + 6
0010cc 81bf     +LDD R27 , Y + 6 + 1
0010cd 9611     +ADIW R26 , 1
0010ce 93ec     +ST X , R30
                 	__PUTB1SNS 6,1
0010cf 81ee      	LDD  R30,Y+6
0010d0 81ff      	LDD  R31,Y+6+1
0010d1 81a1      	LDD  R26,Z+1
0010d2 940e 05a1 	CALL _disk_initialize
0010d4 2f5e      	MOV  R21,R30
0010d5 ff50      	SBRS R21,0
0010d6 c002      	RJMP _0x202010D
0010d7 e0e3      	LDI  R30,LOW(3)
0010d8 c191      	RJMP _0x210000B
                 _0x202010D:
0010d9 8dea      	LDD  R30,Y+26
0010da 30e0      	CPI  R30,0
0010db f011      	BREQ _0x202010F
0010dc fd52      	SBRC R21,2
0010dd c001      	RJMP _0x2020110
                 _0x202010F:
0010de c002      	RJMP _0x202010E
                 _0x2020110:
0010df e0ea      	LDI  R30,LOW(10)
0010e0 c189      	RJMP _0x210000B
                 _0x202010E:
0010e1 940e 1c42 	CALL SUBOPT_0x5D
0010e3 940e 1b69 	CALL SUBOPT_0x3C
                +
0010e5 8fe8     +STD Y + 24 , R30
0010e6 8ff9     +STD Y + 24 + 1 , R31
0010e7 8f6a     +STD Y + 24 + 2 , R22
0010e8 8f7b     +STD Y + 24 + 3 , R23
                 	__PUTD1S 24
0010e9 01df      	MOVW R26,R30
0010ea 01cb      	MOVW R24,R22
0010eb df5d      	RCALL _check_fs_G101
0010ec 2f1e      	MOV  R17,R30
0010ed 3011      	CPI  R17,1
0010ee f4c9      	BRNE _0x2020111
0010ef 81ee      	LDD  R30,Y+6
0010f0 81ff      	LDD  R31,Y+6+1
0010f1 96f2      	ADIW R30,50
0010f2 54e2      	SUBI R30,LOW(-446)
0010f3 4ffe      	SBCI R31,HIGH(-446)
0010f4 019f      	MOVW R18,R30
0010f5 81e4      	LDD  R30,Z+4
0010f6 30e0      	CPI  R30,0
0010f7 f081      	BREQ _0x2020112
0010f8 01d9      	MOVW R26,R18
0010f9 9618      	ADIW R26,8
0010fa 940e 1e25 	CALL __GETD1P
                +
0010fc 8bee     +STD Y + 22 , R30
0010fd 8bff     +STD Y + 22 + 1 , R31
0010fe 8f68     +STD Y + 22 + 2 , R22
0010ff 8f79     +STD Y + 22 + 3 , R23
                 	__PUTD1S 22
001100 940e 1c42 	CALL SUBOPT_0x5D
                +
001102 8da8     +LDD R26 , Y + 24
001103 8db9     +LDD R27 , Y + 24 + 1
001104 8d8a     +LDD R24 , Y + 24 + 2
001105 8d9b     +LDD R25 , Y + 24 + 3
                 	__GETD2S 24
001106 df42      	RCALL _check_fs_G101
001107 2f1e      	MOV  R17,R30
                 _0x2020112:
                 _0x2020111:
001108 3013      	CPI  R17,3
001109 f411      	BRNE _0x2020113
00110a e0e1      	LDI  R30,LOW(1)
00110b c15e      	RJMP _0x210000B
                 _0x2020113:
00110c 3010      	CPI  R17,0
00110d f449      	BRNE _0x2020115
00110e 81ae      	LDD  R26,Y+6
00110f 81bf      	LDD  R27,Y+6+1
001110 96dd      	ADIW R26,61
001111 940e 1e21 	CALL __GETW1P
001113 30e0      	CPI  R30,LOW(0x200)
001114 e0a2      	LDI  R26,HIGH(0x200)
001115 07fa      	CPC  R31,R26
001116 f011      	BREQ _0x2020114
                 _0x2020115:
001117 e0ed      	LDI  R30,LOW(13)
001118 c151      	RJMP _0x210000B
                 _0x2020114:
001119 81ae      	LDD  R26,Y+6
00111a 81bf      	LDD  R27,Y+6+1
00111b 5ba8      	SUBI R26,LOW(-72)
00111c 4fbf      	SBCI R27,HIGH(-72)
00111d 940e 1aab 	CALL SUBOPT_0x20
00111f 940e 1c79 	CALL SUBOPT_0x65
001121 940e 1b72 	CALL SUBOPT_0x3E
001123 940e 1e69 	CALL __CPD10
001125 f441      	BRNE _0x2020117
001126 81ae      	LDD  R26,Y+6
001127 81bf      	LDD  R27,Y+6+1
001128 5aaa      	SUBI R26,LOW(-86)
001129 4fbf      	SBCI R27,HIGH(-86)
00112a 940e 1e25 	CALL __GETD1P
00112c 940e 1c79 	CALL SUBOPT_0x65
                 _0x2020117:
00112e 940e 1b72 	CALL SUBOPT_0x3E
                +
001130 81ae     +LDD R26 , Y + 6
001131 81bf     +LDD R27 , Y + 6 + 1
001132 965a     +ADIW R26 , 26
001133 940e 1e30+CALL __PUTDP1
                 	__PUTD1SNS 6,26
001135 81ee      	LDD  R30,Y+6
001136 81ff      	LDD  R31,Y+6+1
001137 5bee      	SUBI R30,LOW(-66)
001138 4fff      	SBCI R31,HIGH(-66)
001139 81e0      	LD   R30,Z
                +
00113a 81ae     +LDD R26 , Y + 6
00113b 81bf     +LDD R27 , Y + 6 + 1
00113c 9613     +ADIW R26 , 3
00113d 93ec     +ST X , R30
                 	__PUTB1SNS 6,3
00113e 81ee      	LDD  R30,Y+6
00113f 81ff      	LDD  R31,Y+6+1
001140 81e3      	LDD  R30,Z+3
001141 e0f0      	LDI  R31,0
001142 940e 1b44 	CALL SUBOPT_0x35
001144 940e 1da2 	CALL __CWD1
001146 940e 1da7 	CALL __MULD12U
001148 940e 1c79 	CALL SUBOPT_0x65
00114a 940e 1c7e 	CALL SUBOPT_0x66
00114c 940e 1c85 	CALL SUBOPT_0x67
                +
00114e 81ae     +LDD R26 , Y + 6
00114f 81bf     +LDD R27 , Y + 6 + 1
001150 9692     +ADIW R26 , 34
001151 940e 1e30+CALL __PUTDP1
                 	__PUTD1SNS 6,34
001153 81ee      	LDD  R30,Y+6
001154 81ff      	LDD  R31,Y+6+1
001155 ade7      	LDD  R30,Z+63
                +
001156 81ae     +LDD R26 , Y + 6
001157 81bf     +LDD R27 , Y + 6 + 1
001158 9612     +ADIW R26 , 2
001159 93ec     +ST X , R30
                 	__PUTB1SNS 6,2
00115a 81ae      	LDD  R26,Y+6
00115b 81bf      	LDD  R27,Y+6+1
00115c 5bad      	SUBI R26,LOW(-67)
00115d 4fbf      	SBCI R27,HIGH(-67)
00115e 940e 1e21 	CALL __GETW1P
                +
001160 81ae     +LDD R26 , Y + 6
001161 81bf     +LDD R27 , Y + 6 + 1
001162 9618     +ADIW R26 , 8
001163 93ed     +ST X + , R30
001164 93fc     +ST X , R31
                 	__PUTW1SNS 6,8
001165 81ae      	LDD  R26,Y+6
001166 81bf      	LDD  R27,Y+6+1
001167 5bab      	SUBI R26,LOW(-69)
001168 4fbf      	SBCI R27,HIGH(-69)
001169 940e 1aab 	CALL SUBOPT_0x20
                +
00116b 87ee     +STD Y + 14 , R30
00116c 87ff     +STD Y + 14 + 1 , R31
00116d 8b68     +STD Y + 14 + 2 , R22
00116e 8b79     +STD Y + 14 + 3 , R23
                 	__PUTD1S 14
00116f 940e 1e69 	CALL __CPD10
001171 f451      	BRNE _0x2020118
001172 81ae      	LDD  R26,Y+6
001173 81bf      	LDD  R27,Y+6+1
001174 5aae      	SUBI R26,LOW(-82)
001175 4fbf      	SBCI R27,HIGH(-82)
001176 940e 1e25 	CALL __GETD1P
                +
001178 87ee     +STD Y + 14 , R30
001179 87ff     +STD Y + 14 + 1 , R31
00117a 8b68     +STD Y + 14 + 2 , R22
00117b 8b79     +STD Y + 14 + 3 , R23
                 	__PUTD1S 14
                 _0x2020118:
00117c 940e 1c7e 	CALL SUBOPT_0x66
00117e 940e 1ab5 	CALL SUBOPT_0x22
001180 2766      	CLR  R22
001181 2777      	CLR  R23
001182 940e 1b77 	CALL SUBOPT_0x3F
001184 940e 1b44 	CALL SUBOPT_0x35
001186 940e 1d4e 	CALL __SUBD12
001188 937f      	PUSH R23
001189 936f      	PUSH R22
00118a 93ff      	PUSH R31
00118b 93ef      	PUSH R30
00118c 940e 1c8a 	CALL SUBOPT_0x68
00118e 91af      	POP  R26
00118f 91bf      	POP  R27
001190 918f      	POP  R24
001191 919f      	POP  R25
001192 2766      	CLR  R22
001193 2777      	CLR  R23
001194 940e 1d53 	CALL __SUBD21
001196 81ee      	LDD  R30,Y+6
001197 81ff      	LDD  R31,Y+6+1
001198 81e2      	LDD  R30,Z+2
001199 e0f0      	LDI  R31,0
00119a 940e 1da2 	CALL __CWD1
00119c 940e 1de0 	CALL __DIVD21U
                +
00119e 5fee     +SUBI R30 , LOW ( - 2 )
00119f 4fff     +SBCI R31 , HIGH ( - 2 )
0011a0 4f6f     +SBCI R22 , BYTE3 ( - 2 )
0011a1 4f7f     +SBCI R23 , BYTE4 ( - 2 )
                 	__ADDD1N 2
                +
0011a2 87ea     +STD Y + 10 , R30
0011a3 87fb     +STD Y + 10 + 1 , R31
0011a4 876c     +STD Y + 10 + 2 , R22
0011a5 877d     +STD Y + 10 + 3 , R23
                 	__PUTD1S 10
                +
0011a6 81ae     +LDD R26 , Y + 6
0011a7 81bf     +LDD R27 , Y + 6 + 1
0011a8 965e     +ADIW R26 , 30
0011a9 940e 1e30+CALL __PUTDP1
                 	__PUTD1SNS 6,30
0011ab e011      	LDI  R17,LOW(1)
0011ac 940e 1ad8 	CALL SUBOPT_0x25
                +
0011ae 3fa7     +CPI R26 , LOW ( 0xFF7 )
0011af e0ef     +LDI R30 , HIGH ( 0xFF7 )
0011b0 07be     +CPC R27 , R30
0011b1 e0e0     +LDI R30 , BYTE3 ( 0xFF7 )
0011b2 078e     +CPC R24 , R30
0011b3 e0e0     +LDI R30 , BYTE4 ( 0xFF7 )
0011b4 079e     +CPC R25 , R30
                 	__CPD2N 0xFF7
0011b5 f008      	BRLO _0x2020119
0011b6 e012      	LDI  R17,LOW(2)
                 _0x2020119:
0011b7 940e 1ad8 	CALL SUBOPT_0x25
                +
0011b9 3fa7     +CPI R26 , LOW ( 0xFFF7 )
0011ba efef     +LDI R30 , HIGH ( 0xFFF7 )
0011bb 07be     +CPC R27 , R30
0011bc e0e0     +LDI R30 , BYTE3 ( 0xFFF7 )
0011bd 078e     +CPC R24 , R30
0011be e0e0     +LDI R30 , BYTE4 ( 0xFFF7 )
0011bf 079e     +CPC R25 , R30
                 	__CPD2N 0xFFF7
0011c0 f008      	BRLO _0x202011A
0011c1 e013      	LDI  R17,LOW(3)
                 _0x202011A:
0011c2 3013      	CPI  R17,3
0011c3 f439      	BRNE _0x202011B
0011c4 81ae      	LDD  R26,Y+6
0011c5 81bf      	LDD  R27,Y+6+1
0011c6 5aa2      	SUBI R26,LOW(-94)
0011c7 4fbf      	SBCI R27,HIGH(-94)
0011c8 940e 1e25 	CALL __GETD1P
0011ca c002      	RJMP _0x202027C
                 _0x202011B:
0011cb 940e 1c92 	CALL SUBOPT_0x69
                 _0x202027C:
                +
0011cd 81ae     +LDD R26 , Y + 6
0011ce 81bf     +LDD R27 , Y + 6 + 1
0011cf 9696     +ADIW R26 , 38
0011d0 940e 1e30+CALL __PUTDP1
                 	__PUTD1SNS 6,38
0011d2 940e 1c92 	CALL SUBOPT_0x69
0011d4 937f      	PUSH R23
0011d5 936f      	PUSH R22
0011d6 93ff      	PUSH R31
0011d7 93ef      	PUSH R30
0011d8 940e 1c8a 	CALL SUBOPT_0x68
0011da 91af      	POP  R26
0011db 91bf      	POP  R27
0011dc 918f      	POP  R24
0011dd 919f      	POP  R25
0011de 940e 1bab 	CALL SUBOPT_0x47
                +
0011e0 81ae     +LDD R26 , Y + 6
0011e1 81bf     +LDD R27 , Y + 6 + 1
0011e2 969a     +ADIW R26 , 42
0011e3 940e 1e30+CALL __PUTDP1
                 	__PUTD1SNS 6,42
0011e5 81ae      	LDD  R26,Y+6
0011e6 81bf      	LDD  R27,Y+6+1
0011e7 961e      	ADIW R26,14
0011e8 940e 1ab0 	CALL SUBOPT_0x21
0011ea 940e 1e30 	CALL __PUTDP1
0011ec 81ae      	LDD  R26,Y+6
0011ed 81bf      	LDD  R27,Y+6+1
0011ee 9614      	ADIW R26,4
0011ef e0e0      	LDI  R30,LOW(0)
0011f0 93ec      	ST   X,R30
0011f1 3013      	CPI  R17,3
0011f2 f009      	BREQ PC+2
0011f3 c05f      	RJMP _0x202011D
0011f4 81ae      	LDD  R26,Y+6
0011f5 81bf      	LDD  R27,Y+6+1
0011f6 9615      	ADIW R26,5
0011f7 93ec      	ST   X,R30
0011f8 81ae      	LDD  R26,Y+6
0011f9 81bf      	LDD  R27,Y+6+1
0011fa 59ae      	SUBI R26,LOW(-98)
0011fb 4fbf      	SBCI R27,HIGH(-98)
0011fc 940e 1e21 	CALL __GETW1P
0011fe 940e 1c85 	CALL SUBOPT_0x67
                +
001200 81ae     +LDD R26 , Y + 6
001201 81bf     +LDD R27 , Y + 6 + 1
001202 9652     +ADIW R26 , 18
001203 940e 1e30+CALL __PUTDP1
                 	__PUTD1SNS 6,18
001205 81ee      	LDD  R30,Y+6
001206 81ff      	LDD  R31,Y+6+1
001207 81a1      	LDD  R26,Z+1
001208 93aa      	ST   -Y,R26
001209 81ef      	LDD  R30,Y+7
00120a 85f8      	LDD  R31,Y+7+1
00120b 96f2      	ADIW R30,50
00120c 93fa      	ST   -Y,R31
00120d 93ea      	ST   -Y,R30
00120e 85e9      	LDD  R30,Y+9
00120f 85fa      	LDD  R31,Y+9+1
001210 940e 1a4f 	CALL SUBOPT_0x16
001212 940e 0677 	CALL _disk_read
001214 30e0      	CPI  R30,0
001215 f511      	BRNE _0x202011F
001216 81ee      	LDD  R30,Y+6
001217 81ff      	LDD  R31,Y+6+1
001218 940e 1c59 	CALL SUBOPT_0x62
00121a f4e9      	BRNE _0x202011F
00121b 81ae      	LDD  R26,Y+6
00121c 81bf      	LDD  R27,Y+6+1
00121d 96d2      	ADIW R26,50
00121e 940e 1e25 	CALL __GETD1P
                +
001220 35e2     +CPI R30 , LOW ( 0x41615252 )
001221 e5a2     +LDI R26 , HIGH ( 0x41615252 )
001222 07fa     +CPC R31 , R26
001223 e6a1     +LDI R26 , BYTE3 ( 0x41615252 )
001224 076a     +CPC R22 , R26
001225 e4a1     +LDI R26 , BYTE4 ( 0x41615252 )
001226 077a     +CPC R23 , R26
                 	__CPD1N 0x41615252
001227 f481      	BRNE _0x202011F
001228 81ee      	LDD  R30,Y+6
001229 81ff      	LDD  R31,Y+6+1
00122a 96f2      	ADIW R30,50
00122b 51ec      	SUBI R30,LOW(-484)
00122c 4ffe      	SBCI R31,HIGH(-484)
00122d 01df      	MOVW R26,R30
00122e 940e 1e25 	CALL __GETD1P
                +
001230 37e2     +CPI R30 , LOW ( 0x61417272 )
001231 e7a2     +LDI R26 , HIGH ( 0x61417272 )
001232 07fa     +CPC R31 , R26
001233 e4a1     +LDI R26 , BYTE3 ( 0x61417272 )
001234 076a     +CPC R22 , R26
001235 e6a1     +LDI R26 , BYTE4 ( 0x61417272 )
001236 077a     +CPC R23 , R26
                 	__CPD1N 0x61417272
001237 f009      	BREQ _0x2020120
                 _0x202011F:
001238 c01a      	RJMP _0x202011E
                 _0x2020120:
001239 81ee      	LDD  R30,Y+6
00123a 81ff      	LDD  R31,Y+6+1
00123b 96f2      	ADIW R30,50
00123c 51e4      	SUBI R30,LOW(-492)
00123d 4ffe      	SBCI R31,HIGH(-492)
00123e 01df      	MOVW R26,R30
00123f 940e 1e25 	CALL __GETD1P
                +
001241 81ae     +LDD R26 , Y + 6
001242 81bf     +LDD R27 , Y + 6 + 1
001243 961a     +ADIW R26 , 10
001244 940e 1e30+CALL __PUTDP1
                 	__PUTD1SNS 6,10
001246 81ee      	LDD  R30,Y+6
001247 81ff      	LDD  R31,Y+6+1
001248 96f2      	ADIW R30,50
001249 51e8      	SUBI R30,LOW(-488)
00124a 4ffe      	SBCI R31,HIGH(-488)
00124b 01df      	MOVW R26,R30
00124c 940e 1e25 	CALL __GETD1P
                +
00124e 81ae     +LDD R26 , Y + 6
00124f 81bf     +LDD R27 , Y + 6 + 1
001250 961e     +ADIW R26 , 14
001251 940e 1e30+CALL __PUTDP1
                 	__PUTD1SNS 6,14
                 _0x202011E:
                 _0x202011D:
001253 81ae      	LDD  R26,Y+6
001254 81bf      	LDD  R27,Y+6+1
001255 931c      	ST   X,R17
001256 940e 1a30 	CALL SUBOPT_0x12
001258 81ae      	LDD  R26,Y+6
001259 81bf      	LDD  R27,Y+6+1
00125a 9656      	ADIW R26,22
00125b 940e 1c0e 	CALL SUBOPT_0x55
00125d edac      	LDI  R26,LOW(_Fsid_G101)
00125e e0ba      	LDI  R27,HIGH(_Fsid_G101)
00125f 91ed      	LD   R30,X+
001260 91fd      	LD   R31,X+
001261 9631      	ADIW R30,1
001262 93fe      	ST   -X,R31
001263 93ee      	ST   -X,R30
                +
001264 81ae     +LDD R26 , Y + 6
001265 81bf     +LDD R27 , Y + 6 + 1
001266 9616     +ADIW R26 , 6
001267 93ed     +ST X + , R30
001268 93fc     +ST X , R31
                 	__PUTW1SNS 6,6
                 _0x210000C:
001269 e0e0      	LDI  R30,LOW(0)
                 _0x210000B:
00126a 940e 1e84 	CALL __LOADLOCR6
00126c 966f      	ADIW R28,31
00126d 9508      	RET
                 ; .FEND
                 _validate_G101:
                 ; .FSTART _validate_G101
00126e 93ba      	ST   -Y,R27
00126f 93aa      	ST   -Y,R26
001270 81ea      	LDD  R30,Y+2
001271 81fb      	LDD  R31,Y+2+1
001272 9730      	SBIW R30,0
001273 f071      	BREQ _0x2020122
001274 81aa      	LDD  R26,Y+2
001275 81bb      	LDD  R27,Y+2+1
001276 91ec      	LD   R30,X
001277 30e0      	CPI  R30,0
001278 f049      	BREQ _0x2020122
001279 81ea      	LDD  R30,Y+2
00127a 81fb      	LDD  R31,Y+2+1
00127b 81a6      	LDD  R26,Z+6
00127c 81b7      	LDD  R27,Z+7
00127d 81e8      	LD   R30,Y
00127e 81f9      	LDD  R31,Y+1
00127f 17ea      	CP   R30,R26
001280 07fb      	CPC  R31,R27
001281 f011      	BREQ _0x2020121
                 _0x2020122:
001282 e0e9      	LDI  R30,LOW(9)
001283 c00a      	RJMP _0x210000A
                 _0x2020121:
001284 81ea      	LDD  R30,Y+2
001285 81fb      	LDD  R31,Y+2+1
001286 81a1      	LDD  R26,Z+1
001287 940e 066d 	CALL _disk_status
001289 70e1      	ANDI R30,LOW(0x1)
00128a f011      	BREQ _0x2020124
00128b e0e3      	LDI  R30,LOW(3)
00128c c001      	RJMP _0x210000A
                 _0x2020124:
00128d e0e0      	LDI  R30,LOW(0)
                 _0x210000A:
00128e 9624      	ADIW R28,4
00128f 9508      	RET
                 ; .FEND
                 _f_mount:
                 ; .FSTART _f_mount
001290 93ba      	ST   -Y,R27
001291 93aa      	ST   -Y,R26
001292 931a      	ST   -Y,R17
001293 930a      	ST   -Y,R16
001294 81ac      	LDD  R26,Y+4
001295 30a1      	CPI  R26,LOW(0x1)
001296 f010      	BRLO _0x2020125
001297 e0eb      	LDI  R30,LOW(11)
001298 c020      	RJMP _0x2100009
                 _0x2020125:
001299 81ec      	LDD  R30,Y+4
00129a 940e 1c71 	CALL SUBOPT_0x64
00129c 910d      	LD   R16,X+
00129d 911c      	LD   R17,X
00129e 2e00      	MOV  R0,R16
00129f 2a01      	OR   R0,R17
0012a0 f019      	BREQ _0x2020126
0012a1 01d8      	MOVW R26,R16
0012a2 e0e0      	LDI  R30,LOW(0)
0012a3 93ec      	ST   X,R30
                 _0x2020126:
0012a4 81ea      	LDD  R30,Y+2
0012a5 81fb      	LDD  R31,Y+2+1
0012a6 9730      	SBIW R30,0
0012a7 f021      	BREQ _0x2020127
0012a8 81aa      	LDD  R26,Y+2
0012a9 81bb      	LDD  R27,Y+2+1
0012aa e0e0      	LDI  R30,LOW(0)
0012ab 93ec      	ST   X,R30
                 _0x2020127:
0012ac 81ec      	LDD  R30,Y+4
0012ad edaa      	LDI  R26,LOW(_FatFs_G101)
0012ae e0ba      	LDI  R27,HIGH(_FatFs_G101)
0012af e0f0      	LDI  R31,0
0012b0 0fee      	LSL  R30
0012b1 1fff      	ROL  R31
0012b2 0fea      	ADD  R30,R26
0012b3 1ffb      	ADC  R31,R27
0012b4 81aa      	LDD  R26,Y+2
0012b5 81bb      	LDD  R27,Y+2+1
0012b6 83a0      	STD  Z+0,R26
0012b7 83b1      	STD  Z+1,R27
0012b8 e0e0      	LDI  R30,LOW(0)
                 _0x2100009:
0012b9 8119      	LDD  R17,Y+1
0012ba 8108      	LDD  R16,Y+0
0012bb 9625      	ADIW R28,5
0012bc 9508      	RET
                 ; .FEND
                 _f_open:
                 ; .FSTART _f_open
0012bd 93aa      	ST   -Y,R26
0012be 97a2      	SBIW R28,34
0012bf 940e 1e7f 	CALL __SAVELOCR4
0012c1 a5a9      	LDD  R26,Y+41
0012c2 a5ba      	LDD  R27,Y+41+1
0012c3 940e 1c47 	CALL SUBOPT_0x5E
0012c5 a1ee      	LDD  R30,Y+38
0012c6 71ef      	ANDI R30,LOW(0x1F)
0012c7 a3ee      	STD  Y+38,R30
0012c8 01fe      	MOVW R30,R28
0012c9 96b7      	ADIW R30,39
0012ca 93fa      	ST   -Y,R31
0012cb 93ea      	ST   -Y,R30
0012cc 01fe      	MOVW R30,R28
0012cd 9672      	ADIW R30,18
0012ce 93fa      	ST   -Y,R31
0012cf 93ea      	ST   -Y,R30
0012d0 a5ea      	LDD  R30,Y+42
0012d1 71ee      	ANDI R30,LOW(0x1E)
0012d2 2fae      	MOV  R26,R30
0012d3 dda7      	RCALL _chk_mounted
0012d4 2f1e      	MOV  R17,R30
0012d5 3010      	CPI  R17,0
0012d6 f009      	BREQ _0x2020128
0012d7 c112      	RJMP _0x2100008
                 _0x2020128:
0012d8 01fe      	MOVW R30,R28
0012d9 9634      	ADIW R30,4
0012da a3ec      	STD  Y+36,R30
0012db a3fd      	STD  Y+36+1,R31
0012dc 01fe      	MOVW R30,R28
0012dd 9670      	ADIW R30,16
0012de 93fa      	ST   -Y,R31
0012df 93ea      	ST   -Y,R30
0012e0 a5a9      	LDD  R26,Y+41
0012e1 a5ba      	LDD  R27,Y+41+1
0012e2 dce2      	RCALL _follow_path_G101
0012e3 2f1e      	MOV  R17,R30
0012e4 a1ee      	LDD  R30,Y+38
0012e5 71ec      	ANDI R30,LOW(0x1C)
0012e6 f409      	BRNE PC+2
0012e7 c095      	RJMP _0x2020129
0012e8 9728      	SBIW R28,8
0012e9 3010      	CPI  R17,0
0012ea f089      	BREQ _0x202012A
0012eb 3014      	CPI  R17,4
0012ec f421      	BRNE _0x202012B
0012ed 01de      	MOVW R26,R28
0012ee 9658      	ADIW R26,24
0012ef dbbb      	RCALL _dir_register_G101
0012f0 2f1e      	MOV  R17,R30
                 _0x202012B:
0012f1 3010      	CPI  R17,0
0012f2 f019      	BREQ _0x202012C
0012f3 2fe1      	MOV  R30,R17
0012f4 9628      	ADIW R28,8
0012f5 c0f4      	RJMP _0x2100008
                 _0x202012C:
0012f6 a5ee      	LDD  R30,Y+46
0012f7 60e8      	ORI  R30,8
0012f8 a7ee      	STD  Y+46,R30
                +
0012f9 a52a     +LDD R18 , Y + 42
0012fa a53b     +LDD R19 , Y + 42 + 1
                 	__GETWRS 18,19,42
0012fb c068      	RJMP _0x202012D
                 _0x202012A:
0012fc a5ee      	LDD  R30,Y+46
0012fd 70e4      	ANDI R30,LOW(0x4)
0012fe f019      	BREQ _0x202012E
0012ff e0e8      	LDI  R30,LOW(8)
001300 9628      	ADIW R28,8
001301 c0e8      	RJMP _0x2100008
                 _0x202012E:
                +
001302 a52a     +LDD R18 , Y + 42
001303 a53b     +LDD R19 , Y + 42 + 1
                 	__GETWRS 18,19,42
001304 2e02      	MOV  R0,R18
001305 2a03      	OR   R0,R19
001306 f021      	BREQ _0x2020130
001307 01f9      	MOVW R30,R18
001308 85e3      	LDD  R30,Z+11
001309 71e1      	ANDI R30,LOW(0x11)
00130a f019      	BREQ _0x202012F
                 _0x2020130:
00130b e0e7      	LDI  R30,LOW(7)
00130c 9628      	ADIW R28,8
00130d c0dc      	RJMP _0x2100008
                 _0x202012F:
00130e a5ee      	LDD  R30,Y+46
00130f 70e8      	ANDI R30,LOW(0x8)
001310 f409      	BRNE PC+2
001311 c052      	RJMP _0x2020132
001312 940e 1c4c 	CALL SUBOPT_0x5F
001314 940e 1d9d 	CALL __LSLD16
001316 937f      	PUSH R23
001317 936f      	PUSH R22
001318 93ff      	PUSH R31
001319 93ef      	PUSH R30
00131a 940e 1c4f 	CALL SUBOPT_0x60
00131c 91af      	POP  R26
00131d 91bf      	POP  R27
00131e 918f      	POP  R24
00131f 919f      	POP  R25
001320 940e 1c54 	CALL SUBOPT_0x61
001322 940e 1b2a 	CALL SUBOPT_0x2F
001324 01f9      	MOVW R30,R18
001325 9674      	ADIW R30,20
001326 e0a0      	LDI  R26,LOW(0)
001327 e0b0      	LDI  R27,HIGH(0)
001328 83a0      	STD  Z+0,R26
001329 83b1      	STD  Z+1,R27
00132a 01f9      	MOVW R30,R18
00132b 967a      	ADIW R30,26
00132c 83a0      	STD  Z+0,R26
00132d 83b1      	STD  Z+1,R27
00132e 01f9      	MOVW R30,R18
00132f 967c      	ADIW R30,28
001330 940e 1a26 	CALL SUBOPT_0x10
001332 940e 1e4d 	CALL __PUTDZ20
001334 8da8      	LDD  R26,Y+24
001335 8db9      	LDD  R27,Y+24+1
001336 9614      	ADIW R26,4
001337 e0e1      	LDI  R30,LOW(1)
001338 93ec      	ST   X,R30
001339 8da8      	LDD  R26,Y+24
00133a 8db9      	LDD  R27,Y+24+1
00133b 969e      	ADIW R26,46
00133c 940e 1a69 	CALL SUBOPT_0x1A
00133e 940e 1b37 	CALL SUBOPT_0x32
001340 940e 1e69 	CALL __CPD10
001342 f0b9      	BREQ _0x2020133
001343 8de8      	LDD  R30,Y+24
001344 8df9      	LDD  R31,Y+24+1
001345 93fa      	ST   -Y,R31
001346 93ea      	ST   -Y,R30
001347 940e 1b83 	CALL SUBOPT_0x41
001349 d833      	RCALL _remove_chain_G101
00134a 2f1e      	MOV  R17,R30
00134b 3010      	CPI  R17,0
00134c f011      	BREQ _0x2020134
00134d 9628      	ADIW R28,8
00134e c09b      	RJMP _0x2100008
                 _0x2020134:
00134f 940e 1b37 	CALL SUBOPT_0x32
                +
001351 50e1     +SUBI R30 , LOW ( 1 )
001352 40f0     +SBCI R31 , HIGH ( 1 )
001353 4060     +SBCI R22 , BYTE3 ( 1 )
001354 4070     +SBCI R23 , BYTE4 ( 1 )
                 	__SUBD1N 1
                +
001355 8da8     +LDD R26 , Y + 24
001356 8db9     +LDD R27 , Y + 24 + 1
001357 961a     +ADIW R26 , 10
001358 940e 1e30+CALL __PUTDP1
                 	__PUTD1SNS 24,10
                 _0x2020133:
00135a 8de8      	LDD  R30,Y+24
00135b 8df9      	LDD  R31,Y+24+1
00135c 940e 1c99 	CALL SUBOPT_0x6A
00135e 940e 1a2b 	CALL SUBOPT_0x11
001360 f019      	BREQ _0x2020135
001361 2fe1      	MOV  R30,R17
001362 9628      	ADIW R28,8
001363 c086      	RJMP _0x2100008
                 _0x2020135:
                 _0x2020132:
                 _0x202012D:
001364 a5ee      	LDD  R30,Y+46
001365 70e8      	ANDI R30,LOW(0x8)
001366 f0a1      	BREQ _0x2020136
001367 01f9      	MOVW R30,R18
001368 963b      	ADIW R30,11
001369 e0a0      	LDI  R26,LOW(0)
00136a 83a0      	STD  Z+0,R26
00136b 940e 08f6 	CALL _get_fattime
00136d 940e 1bcb 	CALL SUBOPT_0x4C
                +
00136f 01d9     +MOVW R26 , R18
001370 961e     +ADIW R26 , 14
001371 940e 1e30+CALL __PUTDP1
                 	__PUTD1RNS 18,14
001373 8da8      	LDD  R26,Y+24
001374 8db9      	LDD  R27,Y+24+1
001375 9614      	ADIW R26,4
001376 e0e1      	LDI  R30,LOW(1)
001377 93ec      	ST   X,R30
001378 a5ee      	LDD  R30,Y+46
001379 62e0      	ORI  R30,0x20
00137a a7ee      	STD  Y+46,R30
                 _0x2020136:
00137b 9628      	ADIW R28,8
00137c c019      	RJMP _0x2020137
                 _0x2020129:
00137d 3010      	CPI  R17,0
00137e f011      	BREQ _0x2020138
00137f 2fe1      	MOV  R30,R17
001380 c069      	RJMP _0x2100008
                 _0x2020138:
                +
001381 a12a     +LDD R18 , Y + 34
001382 a13b     +LDD R19 , Y + 34 + 1
                 	__GETWRS 18,19,34
001383 2e02      	MOV  R0,R18
001384 2a03      	OR   R0,R19
001385 f021      	BREQ _0x202013A
001386 01f9      	MOVW R30,R18
001387 85e3      	LDD  R30,Z+11
001388 71e0      	ANDI R30,LOW(0x10)
001389 f011      	BREQ _0x2020139
                 _0x202013A:
00138a e0e4      	LDI  R30,LOW(4)
00138b c05e      	RJMP _0x2100008
                 _0x2020139:
00138c a1ee      	LDD  R30,Y+38
00138d 70e2      	ANDI R30,LOW(0x2)
00138e f021      	BREQ _0x202013D
00138f 01f9      	MOVW R30,R18
001390 85e3      	LDD  R30,Z+11
001391 70e1      	ANDI R30,LOW(0x1)
001392 f409      	BRNE _0x202013E
                 _0x202013D:
001393 c002      	RJMP _0x202013C
                 _0x202013E:
001394 e0e7      	LDI  R30,LOW(7)
001395 c054      	RJMP _0x2100008
                 _0x202013C:
                 _0x2020137:
001396 89a8      	LDD  R26,Y+16
001397 89b9      	LDD  R27,Y+16+1
001398 969e      	ADIW R26,46
001399 940e 1e25 	CALL __GETD1P
                +
00139b a5a9     +LDD R26 , Y + 41
00139c a5ba     +LDD R27 , Y + 41 + 1
00139d 965a     +ADIW R26 , 26
00139e 940e 1e30+CALL __PUTDP1
                 	__PUTD1SNS 41,26
0013a0 a1ea      	LDD  R30,Y+34
0013a1 a1fb      	LDD  R31,Y+34+1
                +
0013a2 a5a9     +LDD R26 , Y + 41
0013a3 a5ba     +LDD R27 , Y + 41 + 1
0013a4 965e     +ADIW R26 , 30
0013a5 93ed     +ST X + , R30
0013a6 93fc     +ST X , R31
                 	__PUTW1SNS 41,30
0013a7 a1ee      	LDD  R30,Y+38
                +
0013a8 a5a9     +LDD R26 , Y + 41
0013a9 a5ba     +LDD R27 , Y + 41 + 1
0013aa 9614     +ADIW R26 , 4
0013ab 93ec     +ST X , R30
                 	__PUTB1SNS 41,4
0013ac 940e 1c4c 	CALL SUBOPT_0x5F
0013ae 940e 1d9d 	CALL __LSLD16
0013b0 937f      	PUSH R23
0013b1 936f      	PUSH R22
0013b2 93ff      	PUSH R31
0013b3 93ef      	PUSH R30
0013b4 940e 1c4f 	CALL SUBOPT_0x60
0013b6 91af      	POP  R26
0013b7 91bf      	POP  R27
0013b8 918f      	POP  R24
0013b9 919f      	POP  R25
0013ba 940e 1c54 	CALL SUBOPT_0x61
                +
0013bc a5a9     +LDD R26 , Y + 41
0013bd a5ba     +LDD R27 , Y + 41 + 1
0013be 961e     +ADIW R26 , 14
0013bf 940e 1e30+CALL __PUTDP1
                 	__PUTD1SNS 41,14
0013c1 01d9      	MOVW R26,R18
0013c2 965c      	ADIW R26,28
0013c3 940e 1e25 	CALL __GETD1P
                +
0013c5 a5a9     +LDD R26 , Y + 41
0013c6 a5ba     +LDD R27 , Y + 41 + 1
0013c7 961a     +ADIW R26 , 10
0013c8 940e 1e30+CALL __PUTDP1
                 	__PUTD1SNS 41,10
0013ca a5a9      	LDD  R26,Y+41
0013cb a5ba      	LDD  R27,Y+41+1
0013cc 9616      	ADIW R26,6
0013cd 940e 1c0e 	CALL SUBOPT_0x55
0013cf a5a9      	LDD  R26,Y+41
0013d0 a5ba      	LDD  R27,Y+41+1
0013d1 9615      	ADIW R26,5
0013d2 efef      	LDI  R30,LOW(255)
0013d3 93ec      	ST   X,R30
0013d4 a5a9      	LDD  R26,Y+41
0013d5 a5ba      	LDD  R27,Y+41+1
0013d6 9656      	ADIW R26,22
0013d7 940e 1c0e 	CALL SUBOPT_0x55
0013d9 89e8      	LDD  R30,Y+16
0013da 89f9      	LDD  R31,Y+16+1
0013db a5a9      	LDD  R26,Y+41
0013dc a5ba      	LDD  R27,Y+41+1
0013dd 93ed      	ST   X+,R30
0013de 93fc      	ST   X,R31
0013df 89a8      	LDD  R26,Y+16
0013e0 89b9      	LDD  R27,Y+16+1
0013e1 9616      	ADIW R26,6
0013e2 940e 1e21 	CALL __GETW1P
                +
0013e4 a5a9     +LDD R26 , Y + 41
0013e5 a5ba     +LDD R27 , Y + 41 + 1
0013e6 9612     +ADIW R26 , 2
0013e7 93ed     +ST X + , R30
0013e8 93fc     +ST X , R31
                 	__PUTW1SNS 41,2
0013e9 e0e0      	LDI  R30,LOW(0)
                 _0x2100008:
0013ea 940e 1e86 	CALL __LOADLOCR4
0013ec 96ab      	ADIW R28,43
0013ed 9508      	RET
                 ; .FEND
                 _f_write:
                 ; .FSTART _f_write
0013ee 93ba      	ST   -Y,R27
0013ef 93aa      	ST   -Y,R26
0013f0 972a      	SBIW R28,10
0013f1 940e 1e7d 	CALL __SAVELOCR6
0013f3 89ec      	LDD  R30,Y+20
0013f4 89fd      	LDD  R31,Y+20+1
0013f5 83ee      	STD  Y+6,R30
0013f6 83ff      	STD  Y+6+1,R31
0013f7 89a8      	LDD  R26,Y+16
0013f8 89b9      	LDD  R27,Y+16+1
0013f9 940e 1c47 	CALL SUBOPT_0x5E
0013fb 940e 1ca0 	CALL SUBOPT_0x6B
0013fd 8de8      	LDD  R30,Y+24
0013fe 8df9      	LDD  R31,Y+24+1
0013ff 940e 1ca3 	CALL SUBOPT_0x6C
001401 f011      	BREQ _0x2020159
001402 2fe1      	MOV  R30,R17
001403 c1b8      	RJMP _0x2100007
                 _0x2020159:
001404 89ee      	LDD  R30,Y+22
001405 89ff      	LDD  R31,Y+22+1
001406 81a4      	LDD  R26,Z+4
001407 78a0      	ANDI R26,LOW(0x80)
001408 f011      	BREQ _0x202015A
001409 e0e2      	LDI  R30,LOW(2)
00140a c1b1      	RJMP _0x2100007
                 _0x202015A:
00140b 89ee      	LDD  R30,Y+22
00140c 89ff      	LDD  R31,Y+22+1
00140d 81a4      	LDD  R26,Z+4
00140e 70a2      	ANDI R26,LOW(0x2)
00140f f411      	BRNE _0x202015B
001410 e0e7      	LDI  R30,LOW(7)
001411 c1aa      	RJMP _0x2100007
                 _0x202015B:
001412 89ee      	LDD  R30,Y+22
001413 89ff      	LDD  R31,Y+22+1
                +
001414 85a2     +LDD R26 , Z + 10
001415 85b3     +LDD R27 , Z + 10 + 1
001416 8584     +LDD R24 , Z + 10 + 2
001417 8595     +LDD R25 , Z + 10 + 3
                 	__GETD2Z 10
001418 89ea      	LDD  R30,Y+18
001419 89fb      	LDD  R31,Y+18+1
00141a 940e 1bab 	CALL SUBOPT_0x47
00141c 937f      	PUSH R23
00141d 936f      	PUSH R22
00141e 93ff      	PUSH R31
00141f 93ef      	PUSH R30
001420 940e 1caa 	CALL SUBOPT_0x6D
001422 91af      	POP  R26
001423 91bf      	POP  R27
001424 918f      	POP  R24
001425 919f      	POP  R25
001426 940e 1e78 	CALL __CPD21
001428 f418      	BRSH _0x202015C
001429 e0e0      	LDI  R30,LOW(0)
00142a 8bea      	STD  Y+18,R30
00142b 8beb      	STD  Y+18+1,R30
                 _0x202015C:
                 _0x202015E:
00142c 89ea      	LDD  R30,Y+18
00142d 89fb      	LDD  R31,Y+18+1
00142e 9730      	SBIW R30,0
00142f f409      	BRNE PC+2
001430 c171      	RJMP _0x202015F
001431 940e 1cb0 	CALL SUBOPT_0x6E
001433 01fd      	MOVW R30,R26
001434 01bc      	MOVW R22,R24
001435 70f1      	ANDI R31,HIGH(0x1FF)
001436 9730      	SBIW R30,0
001437 f009      	BREQ PC+2
001438 c120      	RJMP _0x2020160
001439 89ee      	LDD  R30,Y+22
00143a 89ff      	LDD  R31,Y+22+1
00143b 8005      	LDD  R0,Z+5
00143c 940e 1cb7 	CALL SUBOPT_0x6F
00143e 81e2      	LDD  R30,Z+2
00143f 160e      	CP   R0,R30
001440 f408      	BRSH PC+2
001441 c048      	RJMP _0x2020161
001442 89ae      	LDD  R26,Y+22
001443 89bf      	LDD  R27,Y+22+1
001444 9616      	ADIW R26,6
001445 940e 1bb8 	CALL SUBOPT_0x49
001447 f4c1      	BRNE _0x2020162
001448 89ae      	LDD  R26,Y+22
001449 89bf      	LDD  R27,Y+22+1
00144a 961e      	ADIW R26,14
00144b 940e 1e25 	CALL __GETD1P
00144d 940e 1cbc 	CALL SUBOPT_0x70
00144f 940e 1b6e 	CALL SUBOPT_0x3D
001451 f469      	BRNE _0x2020163
001452 940e 1ca0 	CALL SUBOPT_0x6B
001454 940e 1a26 	CALL SUBOPT_0x10
001456 940e 0bd6 	CALL _create_chain_G101
001458 940e 1cbc 	CALL SUBOPT_0x70
                +
00145a 89ae     +LDD R26 , Y + 22
00145b 89bf     +LDD R27 , Y + 22 + 1
00145c 961e     +ADIW R26 , 14
00145d 940e 1e30+CALL __PUTDP1
                 	__PUTD1SNS 22,14
                 _0x2020163:
00145f c008      	RJMP _0x2020164
                 _0x2020162:
001460 940e 1ca0 	CALL SUBOPT_0x6B
001462 940e 1cc1 	CALL SUBOPT_0x71
001464 940e 0bd6 	CALL _create_chain_G101
001466 940e 1cbc 	CALL SUBOPT_0x70
                 _0x2020164:
001468 940e 1b6e 	CALL SUBOPT_0x3D
00146a f409      	BRNE _0x2020165
00146b c136      	RJMP _0x202015F
                 _0x2020165:
00146c 940e 1b50 	CALL SUBOPT_0x37
00146e 940e 1b07 	CALL SUBOPT_0x2B
001470 f421      	BRNE _0x2020166
001471 940e 1cc8 	CALL SUBOPT_0x72
001473 e0e2      	LDI  R30,LOW(2)
001474 c147      	RJMP _0x2100007
                 _0x2020166:
001475 940e 1b50 	CALL SUBOPT_0x37
001477 940e 1b0f 	CALL SUBOPT_0x2C
001479 f421      	BRNE _0x2020167
00147a 940e 1cc8 	CALL SUBOPT_0x72
00147c e0e1      	LDI  R30,LOW(1)
00147d c13e      	RJMP _0x2100007
                 _0x2020167:
00147e 940e 1b55 	CALL SUBOPT_0x38
                +
001480 89ae     +LDD R26 , Y + 22
001481 89bf     +LDD R27 , Y + 22 + 1
001482 9652     +ADIW R26 , 18
001483 940e 1e30+CALL __PUTDP1
                 	__PUTD1SNS 22,18
001485 89ae      	LDD  R26,Y+22
001486 89bf      	LDD  R27,Y+22+1
001487 9615      	ADIW R26,5
001488 e0e0      	LDI  R30,LOW(0)
001489 93ec      	ST   X,R30
                 _0x2020161:
00148a 89ee      	LDD  R30,Y+22
00148b 89ff      	LDD  R31,Y+22+1
00148c 81a4      	LDD  R26,Z+4
00148d 74a0      	ANDI R26,LOW(0x40)
00148e f089      	BREQ _0x2020168
00148f 940e 1cb7 	CALL SUBOPT_0x6F
001491 940e 1ccf 	CALL SUBOPT_0x73
001493 8de9      	LDD  R30,Y+25
001494 8dfa      	LDD  R31,Y+25+1
001495 940e 1cd7 	CALL SUBOPT_0x74
001497 940e 1cdc 	CALL SUBOPT_0x75
001499 f021      	BREQ _0x2020169
00149a 940e 1cc8 	CALL SUBOPT_0x72
00149c e0e1      	LDI  R30,LOW(1)
00149d c11e      	RJMP _0x2100007
                 _0x2020169:
00149e 940e 1ce3 	CALL SUBOPT_0x76
                 _0x2020168:
0014a0 940e 1ca0 	CALL SUBOPT_0x6B
0014a2 940e 1cc1 	CALL SUBOPT_0x71
0014a4 940e 0c97 	CALL _clust2sect
0014a6 940e 1b5f 	CALL SUBOPT_0x3A
0014a8 940e 1a12 	CALL SUBOPT_0xD
0014aa 940e 1e69 	CALL __CPD10
0014ac f421      	BRNE _0x202016A
0014ad 940e 1cc8 	CALL SUBOPT_0x72
0014af e0e2      	LDI  R30,LOW(2)
0014b0 c10b      	RJMP _0x2100007
                 _0x202016A:
0014b1 940e 1cea 	CALL SUBOPT_0x77
0014b3 940e 1a57 	CALL SUBOPT_0x17
0014b5 940e 1da2 	CALL __CWD1
0014b7 940e 1d44 	CALL __ADDD12
0014b9 940e 1b5f 	CALL SUBOPT_0x3A
0014bb 89aa      	LDD  R26,Y+18
0014bc 89bb      	LDD  R27,Y+18+1
0014bd e0e0      	LDI  R30,LOW(512)
0014be e0f2      	LDI  R31,HIGH(512)
0014bf 940e 1dcd 	CALL __DIVW21U
0014c1 01af      	MOVW R20,R30
0014c2 2e04      	MOV  R0,R20
0014c3 2a05      	OR   R0,R21
0014c4 f409      	BRNE PC+2
0014c5 c068      	RJMP _0x202016B
0014c6 940e 1cea 	CALL SUBOPT_0x77
0014c8 0fe4      	ADD  R30,R20
0014c9 1ff5      	ADC  R31,R21
0014ca 010f      	MOVW R0,R30
0014cb 940e 1cb7 	CALL SUBOPT_0x6F
0014cd 81e2      	LDD  R30,Z+2
0014ce 01d0      	MOVW R26,R0
0014cf e0f0      	LDI  R31,0
0014d0 17ea      	CP   R30,R26
0014d1 07fb      	CPC  R31,R27
0014d2 f450      	BRSH _0x202016C
0014d3 940e 1cb7 	CALL SUBOPT_0x6F
0014d5 81e2      	LDD  R30,Z+2
0014d6 e0f0      	LDI  R31,0
0014d7 01df      	MOVW R26,R30
0014d8 940e 1cea 	CALL SUBOPT_0x77
0014da 1bae      	SUB  R26,R30
0014db 0bbf      	SBC  R27,R31
0014dc 01ad      	MOVW R20,R26
                 _0x202016C:
0014dd 940e 1cb7 	CALL SUBOPT_0x6F
0014df 81e1      	LDD  R30,Z+1
0014e0 93ea      	ST   -Y,R30
0014e1 81ef      	LDD  R30,Y+7
0014e2 85f8      	LDD  R31,Y+7+1
0014e3 93fa      	ST   -Y,R31
0014e4 93ea      	ST   -Y,R30
                +
0014e5 85eb     +LDD R30 , Y + 11
0014e6 85fc     +LDD R31 , Y + 11 + 1
0014e7 856d     +LDD R22 , Y + 11 + 2
0014e8 857e     +LDD R23 , Y + 11 + 3
                 	__GETD1S 11
0014e9 940e 1e52 	CALL __PUTPARD1
0014eb 2fa4      	MOV  R26,R20
0014ec 940e 06db 	CALL _disk_write
0014ee 30e0      	CPI  R30,0
0014ef f021      	BREQ _0x202016D
0014f0 940e 1cc8 	CALL SUBOPT_0x72
0014f2 e0e1      	LDI  R30,LOW(1)
0014f3 c0c8      	RJMP _0x2100007
                 _0x202016D:
0014f4 940e 1cef 	CALL SUBOPT_0x78
0014f6 940e 1d53 	CALL __SUBD21
0014f8 01fa      	MOVW R30,R20
0014f9 2766      	CLR  R22
0014fa 2777      	CLR  R23
0014fb 940e 1e78 	CALL __CPD21
0014fd f518      	BRSH _0x202016E
0014fe 89ee      	LDD  R30,Y+22
0014ff 89ff      	LDD  R31,Y+22+1
001500 96b0      	ADIW R30,32
001501 93fa      	ST   -Y,R31
001502 93ea      	ST   -Y,R30
001503 8de8      	LDD  R30,Y+24
001504 8df9      	LDD  R31,Y+24+1
001505 940e 1cd7 	CALL SUBOPT_0x74
                +
001507 85ea     +LDD R30 , Y + 10
001508 85fb     +LDD R31 , Y + 10 + 1
001509 856c     +LDD R22 , Y + 10 + 2
00150a 857d     +LDD R23 , Y + 10 + 3
                 	__GETD1S 10
00150b 940e 1d53 	CALL __SUBD21
                +
00150d e0e0     +LDI R30 , LOW ( 0x200 )
00150e e0f2     +LDI R31 , HIGH ( 0x200 )
00150f e060     +LDI R22 , BYTE3 ( 0x200 )
001510 e070     +LDI R23 , BYTE4 ( 0x200 )
                 	__GETD1N 0x200
001511 940e 1da7 	CALL __MULD12U
001513 85a8      	LDD  R26,Y+8
001514 85b9      	LDD  R27,Y+8+1
001515 2788      	CLR  R24
001516 2799      	CLR  R25
001517 0fea      	ADD  R30,R26
001518 1ffb      	ADC  R31,R27
001519 93fa      	ST   -Y,R31
00151a 93ea      	ST   -Y,R30
00151b e0a0      	LDI  R26,LOW(512)
00151c e0b2      	LDI  R27,HIGH(512)
00151d 940e 191d 	CALL _memcpy
00151f 940e 1ce3 	CALL SUBOPT_0x76
                 _0x202016E:
001521 89ae      	LDD  R26,Y+22
001522 89bf      	LDD  R27,Y+22+1
001523 9615      	ADIW R26,5
001524 91ec      	LD   R30,X
001525 0fe4      	ADD  R30,R20
001526 93ec      	ST   X,R30
001527 01fa      	MOVW R30,R20
001528 0fee      	LSL  R30
001529 1fff      	ROL  R31
00152a 2ffe      	MOV  R31,R30
00152b e0e0      	LDI  R30,0
00152c 019f      	MOVW R18,R30
00152d c04f      	RJMP _0x202015D
                 _0x202016B:
00152e 940e 1cef 	CALL SUBOPT_0x78
001530 940e 1e73 	CALL __CPD12
001532 f0c9      	BREQ _0x202016F
001533 940e 1cb0 	CALL SUBOPT_0x6E
001535 010d      	MOVW R0,R26
001536 940e 1caa 	CALL SUBOPT_0x6D
001538 01d0      	MOVW R26,R0
001539 940e 1e78 	CALL __CPD21
00153b f458      	BRSH _0x2020171
00153c 940e 1cb7 	CALL SUBOPT_0x6F
00153e 940e 1ccf 	CALL SUBOPT_0x73
                +
001540 85eb     +LDD R30 , Y + 11
001541 85fc     +LDD R31 , Y + 11 + 1
001542 856d     +LDD R22 , Y + 11 + 2
001543 857e     +LDD R23 , Y + 11 + 3
                 	__GETD1S 11
001544 940e 1a17 	CALL SUBOPT_0xE
001546 f409      	BRNE _0x2020172
                 _0x2020171:
001547 c004      	RJMP _0x2020170
                 _0x2020172:
001548 940e 1cc8 	CALL SUBOPT_0x72
00154a e0e1      	LDI  R30,LOW(1)
00154b c070      	RJMP _0x2100007
                 _0x2020170:
                 _0x202016F:
00154c 940e 1a12 	CALL SUBOPT_0xD
                +
00154e 89ae     +LDD R26 , Y + 22
00154f 89bf     +LDD R27 , Y + 22 + 1
001550 9656     +ADIW R26 , 22
001551 940e 1e30+CALL __PUTDP1
                 	__PUTD1SNS 22,22
001553 89ae      	LDD  R26,Y+22
001554 89bf      	LDD  R27,Y+22+1
001555 9615      	ADIW R26,5
001556 91ec      	LD   R30,X
001557 5fef      	SUBI R30,-LOW(1)
001558 93ec      	ST   X,R30
                 _0x2020160:
001559 940e 1cf3 	CALL SUBOPT_0x79
00155b e0a0      	LDI  R26,LOW(512)
00155c e0b2      	LDI  R27,HIGH(512)
00155d 1bae      	SUB  R26,R30
00155e 0bbf      	SBC  R27,R31
00155f 019d      	MOVW R18,R26
001560 89ea      	LDD  R30,Y+18
001561 89fb      	LDD  R31,Y+18+1
001562 17e2      	CP   R30,R18
001563 07f3      	CPC  R31,R19
001564 f410      	BRSH _0x2020173
                +
001565 892a     +LDD R18 , Y + 18
001566 893b     +LDD R19 , Y + 18 + 1
                 	__GETWRS 18,19,18
                 _0x2020173:
001567 940e 1cf3 	CALL SUBOPT_0x79
001569 89ae      	LDD  R26,Y+22
00156a 89bf      	LDD  R27,Y+22+1
00156b 9690      	ADIW R26,32
00156c 0fea      	ADD  R30,R26
00156d 1ffb      	ADC  R31,R27
00156e 93fa      	ST   -Y,R31
00156f 93ea      	ST   -Y,R30
001570 85e8      	LDD  R30,Y+8
001571 85f9      	LDD  R31,Y+8+1
001572 93fa      	ST   -Y,R31
001573 93ea      	ST   -Y,R30
001574 01d9      	MOVW R26,R18
001575 940e 191d 	CALL _memcpy
001577 89ae      	LDD  R26,Y+22
001578 89bf      	LDD  R27,Y+22+1
001579 9614      	ADIW R26,4
00157a 91ec      	LD   R30,X
00157b 64e0      	ORI  R30,0x40
00157c 93ec      	ST   X,R30
                 _0x202015D:
00157d 01f9      	MOVW R30,R18
00157e 81ae      	LDD  R26,Y+6
00157f 81bf      	LDD  R27,Y+6+1
001580 0fea      	ADD  R30,R26
001581 1ffb      	ADC  R31,R27
001582 83ee      	STD  Y+6,R30
001583 83ff      	STD  Y+6+1,R31
001584 89ee      	LDD  R30,Y+22
001585 89ff      	LDD  R31,Y+22+1
001586 9636      	ADIW R30,6
001587 010f      	MOVW R0,R30
001588 01df      	MOVW R26,R30
001589 940e 1e25 	CALL __GETD1P
00158b 01df      	MOVW R26,R30
00158c 01cb      	MOVW R24,R22
00158d 01f9      	MOVW R30,R18
00158e 940e 1bab 	CALL SUBOPT_0x47
001590 01d0      	MOVW R26,R0
001591 940e 1e30 	CALL __PUTDP1
001593 89a8      	LDD  R26,Y+16
001594 89b9      	LDD  R27,Y+16+1
001595 91ed      	LD   R30,X+
001596 91fd      	LD   R31,X+
001597 0fe2      	ADD  R30,R18
001598 1ff3      	ADC  R31,R19
001599 93fe      	ST   -X,R31
00159a 93ee      	ST   -X,R30
00159b 89ea      	LDD  R30,Y+18
00159c 89fb      	LDD  R31,Y+18+1
00159d 1be2      	SUB  R30,R18
00159e 0bf3      	SBC  R31,R19
00159f 8bea      	STD  Y+18,R30
0015a0 8bfb      	STD  Y+18+1,R31
0015a1 ce8a      	RJMP _0x202015E
                 _0x202015F:
0015a2 940e 1cb0 	CALL SUBOPT_0x6E
0015a4 010d      	MOVW R0,R26
0015a5 940e 1caa 	CALL SUBOPT_0x6D
0015a7 01d0      	MOVW R26,R0
0015a8 940e 1e73 	CALL __CPD12
0015aa f450      	BRSH _0x2020174
0015ab 89ae      	LDD  R26,Y+22
0015ac 89bf      	LDD  R27,Y+22+1
0015ad 9616      	ADIW R26,6
0015ae 940e 1e25 	CALL __GETD1P
                +
0015b0 89ae     +LDD R26 , Y + 22
0015b1 89bf     +LDD R27 , Y + 22 + 1
0015b2 961a     +ADIW R26 , 10
0015b3 940e 1e30+CALL __PUTDP1
                 	__PUTD1SNS 22,10
                 _0x2020174:
0015b5 89ae      	LDD  R26,Y+22
0015b6 89bf      	LDD  R27,Y+22+1
0015b7 9614      	ADIW R26,4
0015b8 91ec      	LD   R30,X
0015b9 62e0      	ORI  R30,0x20
0015ba 93ec      	ST   X,R30
0015bb e0e0      	LDI  R30,LOW(0)
                 _0x2100007:
0015bc 940e 1e84 	CALL __LOADLOCR6
0015be 9668      	ADIW R28,24
0015bf 9508      	RET
                 ; .FEND
                 _f_sync:
                 ; .FSTART _f_sync
0015c0 93ba      	ST   -Y,R27
0015c1 93aa      	ST   -Y,R26
0015c2 9724      	SBIW R28,4
0015c3 940e 1e7f 	CALL __SAVELOCR4
0015c5 940e 1b88 	CALL SUBOPT_0x42
0015c7 93fa      	ST   -Y,R31
0015c8 93ea      	ST   -Y,R30
0015c9 85ea      	LDD  R30,Y+10
0015ca 85fb      	LDD  R31,Y+10+1
0015cb 940e 1ca3 	CALL SUBOPT_0x6C
0015cd f009      	BREQ PC+2
0015ce c072      	RJMP _0x2020175
0015cf 85e8      	LDD  R30,Y+8
0015d0 85f9      	LDD  R31,Y+8+1
0015d1 81a4      	LDD  R26,Z+4
0015d2 72a0      	ANDI R26,LOW(0x20)
0015d3 f409      	BRNE PC+2
0015d4 c06c      	RJMP _0x2020176
0015d5 81a4      	LDD  R26,Z+4
0015d6 74a0      	ANDI R26,LOW(0x40)
0015d7 f0c1      	BREQ _0x2020177
0015d8 940e 1b88 	CALL SUBOPT_0x42
0015da 81e1      	LDD  R30,Z+1
0015db 93ea      	ST   -Y,R30
0015dc 85e9      	LDD  R30,Y+9
0015dd 85fa      	LDD  R31,Y+9+1
0015de 96b0      	ADIW R30,32
0015df 93fa      	ST   -Y,R31
0015e0 93ea      	ST   -Y,R30
0015e1 85eb      	LDD  R30,Y+11
0015e2 85fc      	LDD  R31,Y+11+1
0015e3 940e 1cd7 	CALL SUBOPT_0x74
0015e5 940e 1cdc 	CALL SUBOPT_0x75
0015e7 f011      	BREQ _0x2020178
0015e8 e0e1      	LDI  R30,LOW(1)
0015e9 c058      	RJMP _0x2100006
                 _0x2020178:
0015ea 85a8      	LDD  R26,Y+8
0015eb 85b9      	LDD  R27,Y+8+1
0015ec 9614      	ADIW R26,4
0015ed 91ec      	LD   R30,X
0015ee 7bef      	ANDI R30,0xBF
0015ef 93ec      	ST   X,R30
                 _0x2020177:
0015f0 940e 1b88 	CALL SUBOPT_0x42
0015f2 93fa      	ST   -Y,R31
0015f3 93ea      	ST   -Y,R30
0015f4 85ea      	LDD  R30,Y+10
0015f5 85fb      	LDD  R31,Y+10+1
                +
0015f6 8da2     +LDD R26 , Z + 26
0015f7 8db3     +LDD R27 , Z + 26 + 1
0015f8 8d84     +LDD R24 , Z + 26 + 2
0015f9 8d95     +LDD R25 , Z + 26 + 3
                 	__GETD2Z 26
0015fa 940e 1a2b 	CALL SUBOPT_0x11
0015fc f009      	BREQ PC+2
0015fd c043      	RJMP _0x2020179
0015fe 85a8      	LDD  R26,Y+8
0015ff 85b9      	LDD  R27,Y+8+1
001600 965e      	ADIW R26,30
001601 912d      	LD   R18,X+
001602 913c      	LD   R19,X
001603 01d9      	MOVW R26,R18
001604 961b      	ADIW R26,11
001605 91ec      	LD   R30,X
001606 62e0      	ORI  R30,0x20
001607 93ec      	ST   X,R30
001608 85a8      	LDD  R26,Y+8
001609 85b9      	LDD  R27,Y+8+1
00160a 961a      	ADIW R26,10
00160b 940e 1e25 	CALL __GETD1P
                +
00160d 01d9     +MOVW R26 , R18
00160e 965c     +ADIW R26 , 28
00160f 940e 1e30+CALL __PUTDP1
                 	__PUTD1RNS 18,28
001611 85a8      	LDD  R26,Y+8
001612 85b9      	LDD  R27,Y+8+1
001613 961e      	ADIW R26,14
001614 940e 1e21 	CALL __GETW1P
                +
001616 01d9     +MOVW R26 , R18
001617 965a     +ADIW R26 , 26
001618 93ed     +ST X + , R30
001619 93fc     +ST X , R31
                 	__PUTW1RNS 18,26
00161a 85e8      	LDD  R30,Y+8
00161b 85f9      	LDD  R31,Y+8+1
                +
00161c 85a6     +LDD R26 , Z + 14
00161d 85b7     +LDD R27 , Z + 14 + 1
00161e 8980     +LDD R24 , Z + 14 + 2
00161f 8991     +LDD R25 , Z + 14 + 3
                 	__GETD2Z 14
001620 01fd      	MOVW R30,R26
001621 01bc      	MOVW R22,R24
001622 940e 1d98 	CALL __LSRD16
                +
001624 01d9     +MOVW R26 , R18
001625 9654     +ADIW R26 , 20
001626 93ed     +ST X + , R30
001627 93fc     +ST X , R31
                 	__PUTW1RNS 18,20
001628 940e 08f6 	CALL _get_fattime
00162a 940e 1bcb 	CALL SUBOPT_0x4C
                +
00162c 01d9     +MOVW R26 , R18
00162d 9656     +ADIW R26 , 22
00162e 940e 1e30+CALL __PUTDP1
                 	__PUTD1RNS 18,22
001630 85a8      	LDD  R26,Y+8
001631 85b9      	LDD  R27,Y+8+1
001632 9614      	ADIW R26,4
001633 91ec      	LD   R30,X
001634 7def      	ANDI R30,0xDF
001635 93ec      	ST   X,R30
001636 940e 1b88 	CALL SUBOPT_0x42
001638 9634      	ADIW R30,4
001639 e0a1      	LDI  R26,LOW(1)
00163a 83a0      	STD  Z+0,R26
00163b 940e 1b88 	CALL SUBOPT_0x42
00163d 01df      	MOVW R26,R30
00163e 940e 09f6 	CALL _sync_G101
001640 2f1e      	MOV  R17,R30
                 _0x2020179:
                 _0x2020176:
                 _0x2020175:
001641 2fe1      	MOV  R30,R17
                 _0x2100006:
001642 940e 1e86 	CALL __LOADLOCR4
001644 962a      	ADIW R28,10
001645 9508      	RET
                 ; .FEND
                 _f_close:
                 ; .FSTART _f_close
001646 93ba      	ST   -Y,R27
001647 93aa      	ST   -Y,R26
001648 931a      	ST   -Y,R17
001649 81a9      	LDD  R26,Y+1
00164a 81ba      	LDD  R27,Y+1+1
00164b df74      	RCALL _f_sync
00164c 2f1e      	MOV  R17,R30
00164d 3010      	CPI  R17,0
00164e f421      	BRNE _0x202017A
00164f 81a9      	LDD  R26,Y+1
001650 81ba      	LDD  R27,Y+1+1
001651 940e 1c47 	CALL SUBOPT_0x5E
                 _0x202017A:
001653 2fe1      	MOV  R30,R17
001654 940c 18d3 	JMP  _0x2100002
                 ; .FEND
                 _f_unlink:
                 ; .FSTART _f_unlink
001656 93ba      	ST   -Y,R27
001657 93aa      	ST   -Y,R26
001658 97ec      	SBIW R28,60
001659 940e 1e7f 	CALL __SAVELOCR4
00165b 01fe      	MOVW R30,R28
00165c 5ce0      	SUBI R30,LOW(-(64))
00165d 4fff      	SBCI R31,HIGH(-(64))
00165e 940e 1cfa 	CALL SUBOPT_0x7A
001660 e0a1      	LDI  R26,LOW(1)
001661 da19      	RCALL _chk_mounted
001662 2f1e      	MOV  R17,R30
001663 3010      	CPI  R17,0
001664 f009      	BREQ _0x20201D6
001665 c083      	RJMP _0x2100004
                 _0x20201D6:
001666 01fe      	MOVW R30,R28
001667 9638      	ADIW R30,8
001668 afee      	STD  Y+62,R30
001669 afff      	STD  Y+62+1,R31
00166a 01fe      	MOVW R30,R28
00166b 96ba      	ADIW R30,42
00166c 93fa      	ST   -Y,R31
00166d 93ea      	ST   -Y,R30
                +
00166e 01de     +MOVW R26 , R28
00166f 5bae     +SUBI R26 , LOW ( - 66 )
001670 4fbf     +SBCI R27 , HIGH ( - 66 )
001671 900d     +LD R0 , X +
001672 91bc     +LD R27 , X
001673 2da0     +MOV R26 , R0
                 	__GETW2SX 66
001674 d950      	RCALL _follow_path_G101
001675 2f1e      	MOV  R17,R30
001676 e0e1      	LDI  R30,LOW(1)
001677 30e0      	CPI  R30,0
001678 f039      	BREQ _0x20201D8
001679 3010      	CPI  R17,0
00167a f429      	BRNE _0x20201D8
00167b adee      	LDD  R30,Y+62
00167c adff      	LDD  R31,Y+62+1
00167d 85e3      	LDD  R30,Z+11
00167e 72e0      	ANDI R30,LOW(0x20)
00167f f409      	BRNE _0x20201D9
                 _0x20201D8:
001680 c001      	RJMP _0x20201D7
                 _0x20201D9:
001681 e016      	LDI  R17,LOW(6)
                 _0x20201D7:
001682 3010      	CPI  R17,0
001683 f009      	BREQ _0x20201DA
001684 c064      	RJMP _0x2100004
                 _0x20201DA:
                +
001685 ad2c     +LDD R18 , Y + 60
001686 ad3d     +LDD R19 , Y + 60 + 1
                 	__GETWRS 18,19,60
001687 2e02      	MOV  R0,R18
001688 2a03      	OR   R0,R19
001689 f411      	BRNE _0x20201DB
00168a e0e6      	LDI  R30,LOW(6)
00168b c05e      	RJMP _0x2100005
                 _0x20201DB:
00168c 01f9      	MOVW R30,R18
00168d 85e3      	LDD  R30,Z+11
00168e 70e1      	ANDI R30,LOW(0x1)
00168f f011      	BREQ _0x20201DC
001690 e0e7      	LDI  R30,LOW(7)
001691 c058      	RJMP _0x2100005
                 _0x20201DC:
001692 940e 1c4c 	CALL SUBOPT_0x5F
001694 940e 1d9d 	CALL __LSLD16
001696 937f      	PUSH R23
001697 936f      	PUSH R22
001698 93ff      	PUSH R31
001699 93ef      	PUSH R30
00169a 940e 1c4f 	CALL SUBOPT_0x60
00169c 91af      	POP  R26
00169d 91bf      	POP  R27
00169e 918f      	POP  R24
00169f 919f      	POP  R25
0016a0 940e 1c54 	CALL SUBOPT_0x61
0016a2 940e 1b3a 	CALL SUBOPT_0x33
0016a4 01f9      	MOVW R30,R18
0016a5 85e3      	LDD  R30,Z+11
0016a6 71e0      	ANDI R30,LOW(0x10)
0016a7 f139      	BREQ _0x20201DD
0016a8 940e 1b32 	CALL SUBOPT_0x31
0016aa 940e 1a5c 	CALL SUBOPT_0x18
0016ac f410      	BRSH _0x20201DE
0016ad e0e2      	LDI  R30,LOW(2)
0016ae c03b      	RJMP _0x2100005
                 _0x20201DE:
0016af 01fe      	MOVW R30,R28
0016b0 9674      	ADIW R30,20
0016b1 940e 1cfa 	CALL SUBOPT_0x7A
0016b3 e1a6      	LDI  R26,LOW(22)
0016b4 e0b0      	LDI  R27,0
0016b5 940e 191d 	CALL _memcpy
0016b7 940e 1b5a 	CALL SUBOPT_0x39
                +
0016b9 8fea     +STD Y + 26 , R30
0016ba 8ffb     +STD Y + 26 + 1 , R31
0016bb 8f6c     +STD Y + 26 + 2 , R22
0016bc 8f7d     +STD Y + 26 + 3 , R23
                 	__PUTD1S 26
0016bd 01fe      	MOVW R30,R28
0016be 9674      	ADIW R30,20
0016bf 93fa      	ST   -Y,R31
0016c0 93ea      	ST   -Y,R30
0016c1 e0a2      	LDI  R26,LOW(2)
0016c2 940e 1be7 	CALL SUBOPT_0x51
0016c4 f521      	BRNE _0x2100004
0016c5 01de      	MOVW R26,R28
0016c6 9654      	ADIW R26,20
0016c7 940e 0e7c 	CALL _dir_read_G101
0016c9 2f1e      	MOV  R17,R30
0016ca 3010      	CPI  R17,0
0016cb f409      	BRNE _0x20201E0
0016cc e017      	LDI  R17,LOW(7)
                 _0x20201E0:
0016cd 3014      	CPI  R17,4
0016ce f4d1      	BRNE _0x2100004
                 _0x20201DD:
0016cf 01de      	MOVW R26,R28
0016d0 969a      	ADIW R26,42
0016d1 940e 0ef3 	CALL _dir_remove_G101
0016d3 2f1e      	MOV  R17,R30
0016d4 3010      	CPI  R17,0
0016d5 f499      	BRNE _0x20201E2
0016d6 940e 1b5a 	CALL SUBOPT_0x39
0016d8 940e 1e69 	CALL __CPD10
0016da f039      	BREQ _0x20201E3
0016db a5ea      	LDD  R30,Y+42
0016dc a5fb      	LDD  R31,Y+42+1
0016dd 940e 1c99 	CALL SUBOPT_0x6A
0016df 940e 0b7d 	CALL _remove_chain_G101
0016e1 2f1e      	MOV  R17,R30
                 _0x20201E3:
0016e2 3010      	CPI  R17,0
0016e3 f429      	BRNE _0x20201E4
0016e4 a5aa      	LDD  R26,Y+42
0016e5 a5bb      	LDD  R27,Y+42+1
0016e6 940e 09f6 	CALL _sync_G101
0016e8 2f1e      	MOV  R17,R30
                 _0x20201E4:
                 _0x20201E2:
                 _0x2100004:
0016e9 2fe1      	MOV  R30,R17
                 _0x2100005:
0016ea 940e 1e86 	CALL __LOADLOCR4
0016ec 96ef      	ADIW R28,63
0016ed 9623      	ADIW R28,3
0016ee 9508      	RET
                 ; .FEND
                 	#ifndef __SLEEP_DEFINED__
                 	#endif
                 
                 	.CSEG
                 _getchar:
                 ; .FSTART _getchar
                 getchar0:
0016ef 9b5f           sbis usr,rxc
0016f0 cffe           rjmp getchar0
0016f1 b1ec           in   r30,udr
0016f2 9508      	RET
                 ; .FEND
                 _putchar:
                 ; .FSTART _putchar
0016f3 93aa      	ST   -Y,R26
                 putchar0:
0016f4 9b5d           sbis usr,udre
0016f5 cffe           rjmp putchar0
0016f6 81e8           ld   r30,y
0016f7 b9ec           out  udr,r30
0016f8 940c 1902 	JMP  _0x2100001
                 ; .FEND
                 _put_usart_G102:
                 ; .FSTART _put_usart_G102
0016fa 93ba      	ST   -Y,R27
0016fb 93aa      	ST   -Y,R26
0016fc 81aa      	LDD  R26,Y+2
0016fd dff5      	RCALL _putchar
0016fe 81a8      	LD   R26,Y
0016ff 81b9      	LDD  R27,Y+1
001700 91ed      	LD   R30,X+
001701 91fd      	LD   R31,X+
001702 9631      	ADIW R30,1
001703 93fe      	ST   -X,R31
001704 93ee      	ST   -X,R30
001705 940c 18d4 	JMP  _0x2100003
                 ; .FEND
                 __print_G102:
                 ; .FSTART __print_G102
001707 93ba      	ST   -Y,R27
001708 93aa      	ST   -Y,R26
001709 9726      	SBIW R28,6
00170a 940e 1e7d 	CALL __SAVELOCR6
00170c e010      	LDI  R17,0
00170d 85ac      	LDD  R26,Y+12
00170e 85bd      	LDD  R27,Y+12+1
00170f 940e 1c47 	CALL SUBOPT_0x5E
                 _0x2040031:
001711 89ea      	LDD  R30,Y+18
001712 89fb      	LDD  R31,Y+18+1
001713 9631      	ADIW R30,1
001714 8bea      	STD  Y+18,R30
001715 8bfb      	STD  Y+18+1,R31
001716 9731      	SBIW R30,1
001717 91e4      	LPM  R30,Z
001718 2f2e      	MOV  R18,R30
001719 30e0      	CPI  R30,0
00171a f409      	BRNE PC+2
00171b c11f      	RJMP _0x2040033
00171c 2fe1      	MOV  R30,R17
00171d 30e0      	CPI  R30,0
00171e f439      	BRNE _0x2040037
00171f 3225      	CPI  R18,37
001720 f411      	BRNE _0x2040038
001721 e011      	LDI  R17,LOW(1)
001722 c002      	RJMP _0x2040039
                 _0x2040038:
001723 940e 1d01 	CALL SUBOPT_0x7B
                 _0x2040039:
001725 c114      	RJMP _0x2040036
                 _0x2040037:
001726 30e1      	CPI  R30,LOW(0x1)
001727 f4a9      	BRNE _0x204003A
001728 3225      	CPI  R18,37
001729 f419      	BRNE _0x204003B
00172a 940e 1d01 	CALL SUBOPT_0x7B
00172c c10c      	RJMP _0x20400EF
                 _0x204003B:
00172d e012      	LDI  R17,LOW(2)
00172e e040      	LDI  R20,LOW(0)
00172f e000      	LDI  R16,LOW(0)
001730 322d      	CPI  R18,45
001731 f411      	BRNE _0x204003C
001732 e001      	LDI  R16,LOW(1)
001733 c106      	RJMP _0x2040036
                 _0x204003C:
001734 322b      	CPI  R18,43
001735 f411      	BRNE _0x204003D
001736 e24b      	LDI  R20,LOW(43)
001737 c102      	RJMP _0x2040036
                 _0x204003D:
001738 3220      	CPI  R18,32
001739 f411      	BRNE _0x204003E
00173a e240      	LDI  R20,LOW(32)
00173b c0fe      	RJMP _0x2040036
                 _0x204003E:
00173c c002      	RJMP _0x204003F
                 _0x204003A:
00173d 30e2      	CPI  R30,LOW(0x2)
00173e f439      	BRNE _0x2040040
                 _0x204003F:
00173f e050      	LDI  R21,LOW(0)
001740 e013      	LDI  R17,LOW(3)
001741 3320      	CPI  R18,48
001742 f411      	BRNE _0x2040041
001743 6800      	ORI  R16,LOW(128)
001744 c0f5      	RJMP _0x2040036
                 _0x2040041:
001745 c003      	RJMP _0x2040042
                 _0x2040040:
001746 30e3      	CPI  R30,LOW(0x3)
001747 f009      	BREQ PC+2
001748 c0f1      	RJMP _0x2040036
                 _0x2040042:
001749 3320      	CPI  R18,48
00174a f010      	BRLO _0x2040045
00174b 332a      	CPI  R18,58
00174c f008      	BRLO _0x2040046
                 _0x2040045:
00174d c007      	RJMP _0x2040044
                 _0x2040046:
00174e e0aa      	LDI  R26,LOW(10)
00174f 9f5a      	MUL  R21,R26
001750 2d50      	MOV  R21,R0
001751 2fe2      	MOV  R30,R18
001752 53e0      	SUBI R30,LOW(48)
001753 0f5e      	ADD  R21,R30
001754 c0e5      	RJMP _0x2040036
                 _0x2040044:
001755 2fe2      	MOV  R30,R18
001756 36e3      	CPI  R30,LOW(0x63)
001757 f449      	BRNE _0x204004A
001758 940e 1d08 	CALL SUBOPT_0x7C
00175a 89e8      	LDD  R30,Y+16
00175b 89f9      	LDD  R31,Y+16+1
00175c 81a4      	LDD  R26,Z+4
00175d 93aa      	ST   -Y,R26
00175e 940e 1d0e 	CALL SUBOPT_0x7D
001760 c0d8      	RJMP _0x204004B
                 _0x204004A:
001761 37e3      	CPI  R30,LOW(0x73)
001762 f469      	BRNE _0x204004D
001763 940e 1d08 	CALL SUBOPT_0x7C
001765 89a8      	LDD  R26,Y+16
001766 89b9      	LDD  R27,Y+16+1
001767 9614      	ADIW R26,4
001768 940e 1c17 	CALL SUBOPT_0x57
00176a 81ae      	LDD  R26,Y+6
00176b 81bf      	LDD  R27,Y+6+1
00176c 940e 193f 	CALL _strlen
00176e 2f1e      	MOV  R17,R30
00176f c00f      	RJMP _0x204004E
                 _0x204004D:
001770 37e0      	CPI  R30,LOW(0x70)
001771 f489      	BRNE _0x2040050
001772 940e 1d08 	CALL SUBOPT_0x7C
001774 89a8      	LDD  R26,Y+16
001775 89b9      	LDD  R27,Y+16+1
001776 9614      	ADIW R26,4
001777 940e 1c17 	CALL SUBOPT_0x57
001779 81ae      	LDD  R26,Y+6
00177a 81bf      	LDD  R27,Y+6+1
00177b 940e 194b 	CALL _strlenf
00177d 2f1e      	MOV  R17,R30
00177e 6008      	ORI  R16,LOW(8)
                 _0x204004E:
00177f 6002      	ORI  R16,LOW(2)
001780 770f      	ANDI R16,LOW(127)
001781 e030      	LDI  R19,LOW(0)
001782 c034      	RJMP _0x2040051
                 _0x2040050:
001783 36e4      	CPI  R30,LOW(0x64)
001784 f011      	BREQ _0x2040054
001785 36e9      	CPI  R30,LOW(0x69)
001786 f411      	BRNE _0x2040055
                 _0x2040054:
001787 6004      	ORI  R16,LOW(4)
001788 c002      	RJMP _0x2040056
                 _0x2040055:
001789 37e5      	CPI  R30,LOW(0x75)
00178a f431      	BRNE _0x2040057
                 _0x2040056:
00178b e1e2      	LDI  R30,LOW(_tbl10_G102*2)
00178c e0f1      	LDI  R31,HIGH(_tbl10_G102*2)
00178d 83ee      	STD  Y+6,R30
00178e 83ff      	STD  Y+6+1,R31
00178f e015      	LDI  R17,LOW(5)
001790 c00c      	RJMP _0x2040058
                 _0x2040057:
001791 35e8      	CPI  R30,LOW(0x58)
001792 f411      	BRNE _0x204005A
001793 6008      	ORI  R16,LOW(8)
001794 c003      	RJMP _0x204005B
                 _0x204005A:
001795 37e8      	CPI  R30,LOW(0x78)
001796 f009      	BREQ PC+2
001797 c0a1      	RJMP _0x204008C
                 _0x204005B:
001798 e1ec      	LDI  R30,LOW(_tbl16_G102*2)
001799 e0f1      	LDI  R31,HIGH(_tbl16_G102*2)
00179a 83ee      	STD  Y+6,R30
00179b 83ff      	STD  Y+6+1,R31
00179c e014      	LDI  R17,LOW(4)
                 _0x2040058:
00179d ff02      	SBRS R16,2
00179e c014      	RJMP _0x204005D
00179f 940e 1d08 	CALL SUBOPT_0x7C
0017a1 940e 1d14 	CALL SUBOPT_0x7E
0017a3 85ab      	LDD  R26,Y+11
0017a4 23aa      	TST  R26
0017a5 f43a      	BRPL _0x204005E
0017a6 85ea      	LDD  R30,Y+10
0017a7 85fb      	LDD  R31,Y+10+1
0017a8 940e 1d5d 	CALL __ANEGW1
0017aa 87ea      	STD  Y+10,R30
0017ab 87fb      	STD  Y+10+1,R31
0017ac e24d      	LDI  R20,LOW(45)
                 _0x204005E:
0017ad 3040      	CPI  R20,0
0017ae f011      	BREQ _0x204005F
0017af 5f1f      	SUBI R17,-LOW(1)
0017b0 c001      	RJMP _0x2040060
                 _0x204005F:
0017b1 7f0b      	ANDI R16,LOW(251)
                 _0x2040060:
0017b2 c004      	RJMP _0x2040061
                 _0x204005D:
0017b3 940e 1d08 	CALL SUBOPT_0x7C
0017b5 940e 1d14 	CALL SUBOPT_0x7E
                 _0x2040061:
                 _0x2040051:
0017b7 fd00      	SBRC R16,0
0017b8 c011      	RJMP _0x2040062
                 _0x2040063:
0017b9 1715      	CP   R17,R21
0017ba f478      	BRSH _0x2040065
0017bb ff07      	SBRS R16,7
0017bc c008      	RJMP _0x2040066
0017bd ff02      	SBRS R16,2
0017be c004      	RJMP _0x2040067
0017bf 7f0b      	ANDI R16,LOW(251)
0017c0 2f24      	MOV  R18,R20
0017c1 5011      	SUBI R17,LOW(1)
0017c2 c001      	RJMP _0x2040068
                 _0x2040067:
0017c3 e320      	LDI  R18,LOW(48)
                 _0x2040068:
0017c4 c001      	RJMP _0x2040069
                 _0x2040066:
0017c5 e220      	LDI  R18,LOW(32)
                 _0x2040069:
0017c6 940e 1d01 	CALL SUBOPT_0x7B
0017c8 5051      	SUBI R21,LOW(1)
0017c9 cfef      	RJMP _0x2040063
                 _0x2040065:
                 _0x2040062:
0017ca 2f31      	MOV  R19,R17
0017cb ff01      	SBRS R16,1
0017cc c017      	RJMP _0x204006A
                 _0x204006B:
0017cd 3030      	CPI  R19,0
0017ce f0a1      	BREQ _0x204006D
0017cf ff03      	SBRS R16,3
0017d0 c006      	RJMP _0x204006E
0017d1 81ee      	LDD  R30,Y+6
0017d2 81ff      	LDD  R31,Y+6+1
0017d3 9125      	LPM  R18,Z+
0017d4 83ee      	STD  Y+6,R30
0017d5 83ff      	STD  Y+6+1,R31
0017d6 c005      	RJMP _0x204006F
                 _0x204006E:
0017d7 81ae      	LDD  R26,Y+6
0017d8 81bf      	LDD  R27,Y+6+1
0017d9 912d      	LD   R18,X+
0017da 83ae      	STD  Y+6,R26
0017db 83bf      	STD  Y+6+1,R27
                 _0x204006F:
0017dc 940e 1d01 	CALL SUBOPT_0x7B
0017de 3050      	CPI  R21,0
0017df f009      	BREQ _0x2040070
0017e0 5051      	SUBI R21,LOW(1)
                 _0x2040070:
0017e1 5031      	SUBI R19,LOW(1)
0017e2 cfea      	RJMP _0x204006B
                 _0x204006D:
0017e3 c04b      	RJMP _0x2040071
                 _0x204006A:
                 _0x2040073:
0017e4 e320      	LDI  R18,LOW(48)
0017e5 81ee      	LDD  R30,Y+6
0017e6 81ff      	LDD  R31,Y+6+1
0017e7 940e 1e3a 	CALL __GETW1PF
0017e9 87e8      	STD  Y+8,R30
0017ea 87f9      	STD  Y+8+1,R31
0017eb 81ee      	LDD  R30,Y+6
0017ec 81ff      	LDD  R31,Y+6+1
0017ed 9632      	ADIW R30,2
0017ee 83ee      	STD  Y+6,R30
0017ef 83ff      	STD  Y+6+1,R31
                 _0x2040075:
0017f0 85e8      	LDD  R30,Y+8
0017f1 85f9      	LDD  R31,Y+8+1
0017f2 85aa      	LDD  R26,Y+10
0017f3 85bb      	LDD  R27,Y+10+1
0017f4 17ae      	CP   R26,R30
0017f5 07bf      	CPC  R27,R31
0017f6 f050      	BRLO _0x2040077
0017f7 5f2f      	SUBI R18,-LOW(1)
0017f8 85a8      	LDD  R26,Y+8
0017f9 85b9      	LDD  R27,Y+8+1
0017fa 85ea      	LDD  R30,Y+10
0017fb 85fb      	LDD  R31,Y+10+1
0017fc 1bea      	SUB  R30,R26
0017fd 0bfb      	SBC  R31,R27
0017fe 87ea      	STD  Y+10,R30
0017ff 87fb      	STD  Y+10+1,R31
001800 cfef      	RJMP _0x2040075
                 _0x2040077:
001801 332a      	CPI  R18,58
001802 f028      	BRLO _0x2040078
001803 ff03      	SBRS R16,3
001804 c002      	RJMP _0x2040079
001805 5f29      	SUBI R18,-LOW(7)
001806 c001      	RJMP _0x204007A
                 _0x2040079:
001807 5d29      	SUBI R18,-LOW(39)
                 _0x204007A:
                 _0x2040078:
001808 fd04      	SBRC R16,4
001809 c01a      	RJMP _0x204007C
00180a 3321      	CPI  R18,49
00180b f420      	BRSH _0x204007E
00180c 85a8      	LDD  R26,Y+8
00180d 85b9      	LDD  R27,Y+8+1
00180e 9711      	SBIW R26,1
00180f f409      	BRNE _0x204007D
                 _0x204007E:
001810 c009      	RJMP _0x20400F0
                 _0x204007D:
001811 1753      	CP   R21,R19
001812 f010      	BRLO _0x2040082
001813 ff00      	SBRS R16,0
001814 c001      	RJMP _0x2040083
                 _0x2040082:
001815 c013      	RJMP _0x2040081
                 _0x2040083:
001816 e220      	LDI  R18,LOW(32)
001817 ff07      	SBRS R16,7
001818 c00b      	RJMP _0x2040084
001819 e320      	LDI  R18,LOW(48)
                 _0x20400F0:
00181a 6100      	ORI  R16,LOW(16)
00181b ff02      	SBRS R16,2
00181c c007      	RJMP _0x2040085
00181d 7f0b      	ANDI R16,LOW(251)
00181e 934a      	ST   -Y,R20
00181f 940e 1d0e 	CALL SUBOPT_0x7D
001821 3050      	CPI  R21,0
001822 f009      	BREQ _0x2040086
001823 5051      	SUBI R21,LOW(1)
                 _0x2040086:
                 _0x2040085:
                 _0x2040084:
                 _0x204007C:
001824 940e 1d01 	CALL SUBOPT_0x7B
001826 3050      	CPI  R21,0
001827 f009      	BREQ _0x2040087
001828 5051      	SUBI R21,LOW(1)
                 _0x2040087:
                 _0x2040081:
001829 5031      	SUBI R19,LOW(1)
00182a 85a8      	LDD  R26,Y+8
00182b 85b9      	LDD  R27,Y+8+1
00182c 9712      	SBIW R26,2
00182d f008      	BRLO _0x2040074
00182e cfb5      	RJMP _0x2040073
                 _0x2040074:
                 _0x2040071:
00182f ff00      	SBRS R16,0
001830 c008      	RJMP _0x2040088
                 _0x2040089:
001831 3050      	CPI  R21,0
001832 f031      	BREQ _0x204008B
001833 5051      	SUBI R21,LOW(1)
001834 e2e0      	LDI  R30,LOW(32)
001835 93ea      	ST   -Y,R30
001836 940e 1d0e 	CALL SUBOPT_0x7D
001838 cff8      	RJMP _0x2040089
                 _0x204008B:
                 _0x2040088:
                 _0x204008C:
                 _0x204004B:
                 _0x20400EF:
001839 e010      	LDI  R17,LOW(0)
                 _0x2040036:
00183a ced6      	RJMP _0x2040031
                 _0x2040033:
00183b 85ac      	LDD  R26,Y+12
00183c 85bd      	LDD  R27,Y+12+1
00183d 940e 1e21 	CALL __GETW1P
00183f 940e 1e84 	CALL __LOADLOCR6
001841 9664      	ADIW R28,20
001842 9508      	RET
                 ; .FEND
                 _printf:
                 ; .FSTART _printf
001843 92ff      	PUSH R15
001844 2ef8      	MOV  R15,R24
001845 9726      	SBIW R28,6
001846 931a      	ST   -Y,R17
001847 930a      	ST   -Y,R16
001848 01de      	MOVW R26,R28
001849 9614      	ADIW R26,4
00184a 940e 1d40 	CALL __ADDW2R15
00184c 018d      	MOVW R16,R26
00184d e0e0      	LDI  R30,LOW(0)
00184e 83ec      	STD  Y+4,R30
00184f 83ed      	STD  Y+4+1,R30
001850 83ee      	STD  Y+6,R30
001851 83ef      	STD  Y+6+1,R30
001852 01de      	MOVW R26,R28
001853 9618      	ADIW R26,8
001854 940e 1d40 	CALL __ADDW2R15
001856 940e 1c12 	CALL SUBOPT_0x56
001858 931a      	ST   -Y,R17
001859 930a      	ST   -Y,R16
00185a efea      	LDI  R30,LOW(_put_usart_G102)
00185b e1f6      	LDI  R31,HIGH(_put_usart_G102)
00185c 93fa      	ST   -Y,R31
00185d 93ea      	ST   -Y,R30
00185e 01de      	MOVW R26,R28
00185f 9618      	ADIW R26,8
001860 dea6      	RCALL __print_G102
001861 8119      	LDD  R17,Y+1
001862 8108      	LDD  R16,Y+0
001863 9628      	ADIW R28,8
001864 90ff      	POP  R15
001865 9508      	RET
                 ; .FEND
                 	#ifndef __SLEEP_DEFINED__
                 	#endif
                 
                 	.DSEG
                 
                 	.CSEG
                 __lcd_write_nibble_G103:
                 ; .FSTART __lcd_write_nibble_G103
001866 93aa      	ST   -Y,R26
001867 b3e5      	IN   R30,0x15
001868 70ef      	ANDI R30,LOW(0xF)
001869 2fae      	MOV  R26,R30
00186a 81e8      	LD   R30,Y
00186b 7fe0      	ANDI R30,LOW(0xF0)
00186c 2bea      	OR   R30,R26
00186d bbe5      	OUT  0x15,R30
                +
00186e e08d     +LDI R24 , LOW ( 13 )
                +__DELAY_USB_LOOP :
00186f 958a     +DEC R24
001870 f7f1     +BRNE __DELAY_USB_LOOP
                 	__DELAY_USB 13
001871 9aaa      	SBI  0x15,2
                +
001872 e08d     +LDI R24 , LOW ( 13 )
                +__DELAY_USB_LOOP :
001873 958a     +DEC R24
001874 f7f1     +BRNE __DELAY_USB_LOOP
                 	__DELAY_USB 13
001875 98aa      	CBI  0x15,2
                +
001876 e08d     +LDI R24 , LOW ( 13 )
                +__DELAY_USB_LOOP :
001877 958a     +DEC R24
001878 f7f1     +BRNE __DELAY_USB_LOOP
                 	__DELAY_USB 13
001879 c088      	RJMP _0x2100001
                 ; .FEND
                 __lcd_write_data:
                 ; .FSTART __lcd_write_data
00187a 93aa      	ST   -Y,R26
00187b 81a8      	LD   R26,Y
00187c dfe9      	RCALL __lcd_write_nibble_G103
00187d 81e8          ld    r30,y
00187e 95e2          swap  r30
00187f 83e8          st    y,r30
001880 81a8      	LD   R26,Y
001881 dfe4      	RCALL __lcd_write_nibble_G103
                +
001882 e885     +LDI R24 , LOW ( 133 )
                +__DELAY_USB_LOOP :
001883 958a     +DEC R24
001884 f7f1     +BRNE __DELAY_USB_LOOP
                 	__DELAY_USB 133
001885 c07c      	RJMP _0x2100001
                 ; .FEND
                 _lcd_gotoxy:
                 ; .FSTART _lcd_gotoxy
001886 93aa      	ST   -Y,R26
001887 81e8      	LD   R30,Y
001888 e0f0      	LDI  R31,0
001889 52e1      	SUBI R30,LOW(-__base_y_G103)
00188a 4ff5      	SBCI R31,HIGH(-__base_y_G103)
00188b 81e0      	LD   R30,Z
00188c 81a9      	LDD  R26,Y+1
00188d 0fae      	ADD  R26,R30
00188e dfeb      	RCALL __lcd_write_data
00188f 8049      	LDD  R4,Y+1
001890 8098      	LDD  R9,Y+0
001891 9622      	ADIW R28,2
001892 9508      	RET
                 ; .FEND
                 _lcd_clear:
                 ; .FSTART _lcd_clear
001893 e0a2      	LDI  R26,LOW(2)
001894 940e 1d1c 	CALL SUBOPT_0x7F
001896 e0ac      	LDI  R26,LOW(12)
001897 dfe2      	RCALL __lcd_write_data
001898 e0a1      	LDI  R26,LOW(1)
001899 940e 1d1c 	CALL SUBOPT_0x7F
00189b e0e0      	LDI  R30,LOW(0)
00189c 2e9e      	MOV  R9,R30
00189d 2e4e      	MOV  R4,R30
00189e 9508      	RET
                 ; .FEND
                 _lcd_putchar:
                 ; .FSTART _lcd_putchar
00189f 93aa      	ST   -Y,R26
0018a0 81a8      	LD   R26,Y
0018a1 30aa      	CPI  R26,LOW(0xA)
0018a2 f011      	BREQ _0x2060005
0018a3 1448      	CP   R4,R8
0018a4 f048      	BRLO _0x2060004
                 _0x2060005:
0018a5 e0e0      	LDI  R30,LOW(0)
0018a6 93ea      	ST   -Y,R30
0018a7 9493      	INC  R9
0018a8 2da9      	MOV  R26,R9
0018a9 dfdc      	RCALL _lcd_gotoxy
0018aa 81a8      	LD   R26,Y
0018ab 30aa      	CPI  R26,LOW(0xA)
0018ac f409      	BRNE _0x2060007
0018ad c054      	RJMP _0x2100001
                 _0x2060007:
                 _0x2060004:
0018ae 9443      	INC  R4
0018af 9aa8      	SBI  0x15,0
0018b0 81a8      	LD   R26,Y
0018b1 dfc8      	RCALL __lcd_write_data
0018b2 98a8      	CBI  0x15,0
0018b3 c04e      	RJMP _0x2100001
                 ; .FEND
                 _lcd_puts:
                 ; .FSTART _lcd_puts
0018b4 93ba      	ST   -Y,R27
0018b5 93aa      	ST   -Y,R26
0018b6 931a      	ST   -Y,R17
                 _0x2060008:
0018b7 81a9      	LDD  R26,Y+1
0018b8 81ba      	LDD  R27,Y+1+1
0018b9 91ed      	LD   R30,X+
0018ba 83a9      	STD  Y+1,R26
0018bb 83ba      	STD  Y+1+1,R27
0018bc 2f1e      	MOV  R17,R30
0018bd 30e0      	CPI  R30,0
0018be f019      	BREQ _0x206000A
0018bf 2fa1      	MOV  R26,R17
0018c0 dfde      	RCALL _lcd_putchar
0018c1 cff5      	RJMP _0x2060008
                 _0x206000A:
0018c2 c010      	RJMP _0x2100002
                 ; .FEND
                 _lcd_putsf:
                 ; .FSTART _lcd_putsf
0018c3 93ba      	ST   -Y,R27
0018c4 93aa      	ST   -Y,R26
0018c5 931a      	ST   -Y,R17
                 _0x206000B:
0018c6 81e9      	LDD  R30,Y+1
0018c7 81fa      	LDD  R31,Y+1+1
0018c8 9631      	ADIW R30,1
0018c9 83e9      	STD  Y+1,R30
0018ca 83fa      	STD  Y+1+1,R31
0018cb 9731      	SBIW R30,1
0018cc 91e4      	LPM  R30,Z
0018cd 2f1e      	MOV  R17,R30
0018ce 30e0      	CPI  R30,0
0018cf f019      	BREQ _0x206000D
0018d0 2fa1      	MOV  R26,R17
0018d1 dfcd      	RCALL _lcd_putchar
0018d2 cff3      	RJMP _0x206000B
                 _0x206000D:
                 _0x2100002:
0018d3 8118      	LDD  R17,Y+0
                 _0x2100003:
0018d4 9623      	ADIW R28,3
0018d5 9508      	RET
                 ; .FEND
                 _lcd_init:
                 ; .FSTART _lcd_init
0018d6 93aa      	ST   -Y,R26
0018d7 b3e4      	IN   R30,0x14
0018d8 6fe0      	ORI  R30,LOW(0xF0)
0018d9 bbe4      	OUT  0x14,R30
0018da 9aa2      	SBI  0x14,2
0018db 9aa0      	SBI  0x14,0
0018dc 9aa1      	SBI  0x14,1
0018dd 98aa      	CBI  0x15,2
0018de 98a8      	CBI  0x15,0
0018df 98a9      	CBI  0x15,1
0018e0 8088      	LDD  R8,Y+0
0018e1 81e8      	LD   R30,Y
0018e2 58e0      	SUBI R30,-LOW(128)
                +
0018e3 93e0 0ae1+STS __base_y_G103 + ( 2 ) , R30
                 	__PUTB1MN __base_y_G103,2
0018e5 81e8      	LD   R30,Y
0018e6 54e0      	SUBI R30,-LOW(192)
                +
0018e7 93e0 0ae2+STS __base_y_G103 + ( 3 ) , R30
                 	__PUTB1MN __base_y_G103,3
0018e9 e1a4      	LDI  R26,LOW(20)
0018ea e0b0      	LDI  R27,0
0018eb 940e 1d36 	CALL _delay_ms
0018ed 940e 1d22 	CALL SUBOPT_0x80
0018ef 940e 1d22 	CALL SUBOPT_0x80
0018f1 940e 1d22 	CALL SUBOPT_0x80
0018f3 e2a0      	LDI  R26,LOW(32)
0018f4 df71      	RCALL __lcd_write_nibble_G103
                +
0018f5 ec88     +LDI R24 , LOW ( 200 )
0018f6 e090     +LDI R25 , HIGH ( 200 )
                +__DELAY_USW_LOOP :
0018f7 9701     +SBIW R24 , 1
0018f8 f7f1     +BRNE __DELAY_USW_LOOP
                 	__DELAY_USW 200
0018f9 e2a8      	LDI  R26,LOW(40)
0018fa df7f      	RCALL __lcd_write_data
0018fb e0a4      	LDI  R26,LOW(4)
0018fc df7d      	RCALL __lcd_write_data
0018fd e8a5      	LDI  R26,LOW(133)
0018fe df7b      	RCALL __lcd_write_data
0018ff e0a6      	LDI  R26,LOW(6)
001900 df79      	RCALL __lcd_write_data
001901 df91      	RCALL _lcd_clear
                 _0x2100001:
001902 9621      	ADIW R28,1
001903 9508      	RET
                 ; .FEND
                 
                 	.CSEG
                 _memcmp:
                 ; .FSTART _memcmp
001904 93ba      	ST   -Y,R27
001905 93aa      	ST   -Y,R26
001906 2766          clr  r22
001907 2777          clr  r23
001908 9189          ld   r24,y+
001909 9199          ld   r25,y+
00190a 91e9          ld   r30,y+
00190b 91f9          ld   r31,y+
00190c 91a9          ld   r26,y+
00190d 91b9          ld   r27,y+
                 memcmp0:
00190e 9600          adiw r24,0
00190f f029          breq memcmp1
001910 9701          sbiw r24,1
001911 916d          ld   r22,x+
001912 9171          ld   r23,z+
001913 1767          cp   r22,r23
001914 f3c9          breq memcmp0
                 memcmp1:
001915 1b67          sub  r22,r23
001916 f410          brcc memcmp2
001917 efef          ldi  r30,-1
001918 9508          ret
                 memcmp2:
001919 e0e0          ldi  r30,0
00191a f009          breq memcmp3
00191b 95e3          inc  r30
                 memcmp3:
00191c 9508          ret
                 ; .FEND
                 _memcpy:
                 ; .FSTART _memcpy
00191d 93ba      	ST   -Y,R27
00191e 93aa      	ST   -Y,R26
00191f 8199          ldd  r25,y+1
001920 8188          ld   r24,y
001921 9600          adiw r24,0
001922 f041          breq memcpy1
001923 81bd          ldd  r27,y+5
001924 81ac          ldd  r26,y+4
001925 81fb          ldd  r31,y+3
001926 81ea          ldd  r30,y+2
                 memcpy0:
001927 9161          ld   r22,z+
001928 936d          st   x+,r22
001929 9701          sbiw r24,1
00192a f7e1          brne memcpy0
                 memcpy1:
00192b 81fd          ldd  r31,y+5
00192c 81ec          ldd  r30,y+4
00192d 9626      	ADIW R28,6
00192e 9508      	RET
                 ; .FEND
                 _memset:
                 ; .FSTART _memset
00192f 93ba      	ST   -Y,R27
001930 93aa      	ST   -Y,R26
001931 81b9          ldd  r27,y+1
001932 81a8          ld   r26,y
001933 9610          adiw r26,0
001934 f031          breq memset1
001935 81fc          ldd  r31,y+4
001936 81eb          ldd  r30,y+3
001937 816a          ldd  r22,y+2
                 memset0:
001938 9361          st   z+,r22
001939 9711          sbiw r26,1
00193a f7e9          brne memset0
                 memset1:
00193b 81eb          ldd  r30,y+3
00193c 81fc          ldd  r31,y+4
00193d 9625      	ADIW R28,5
00193e 9508      	RET
                 ; .FEND
                 _strlen:
                 ; .FSTART _strlen
00193f 93ba      	ST   -Y,R27
001940 93aa      	ST   -Y,R26
001941 91a9          ld   r26,y+
001942 91b9          ld   r27,y+
001943 27ee          clr  r30
001944 27ff          clr  r31
                 strlen0:
001945 916d          ld   r22,x+
001946 2366          tst  r22
001947 f011          breq strlen1
001948 9631          adiw r30,1
001949 cffb          rjmp strlen0
                 strlen1:
00194a 9508          ret
                 ; .FEND
                 _strlenf:
                 ; .FSTART _strlenf
00194b 93ba      	ST   -Y,R27
00194c 93aa      	ST   -Y,R26
00194d 27aa          clr  r26
00194e 27bb          clr  r27
00194f 91e9          ld   r30,y+
001950 91f9          ld   r31,y+
                 strlenf0:
001951 9005      	lpm  r0,z+
001952 2000          tst  r0
001953 f011          breq strlenf1
001954 9611          adiw r26,1
001955 cffb          rjmp strlenf0
                 strlenf1:
001956 01fd          movw r30,r26
001957 9508          ret
                 ; .FEND
                 _strstrf:
                 ; .FSTART _strstrf
001958 93ba      	ST   -Y,R27
001959 93aa      	ST   -Y,R26
00195a 81aa          ldd  r26,y+2
00195b 81bb          ldd  r27,y+3
00195c 01cd          movw r24,r26
                 strstrf0:
00195d 81e8          ld   r30,y
00195e 81f9          ldd  r31,y+1
                 strstrf1:
00195f 9005      	lpm  r0,z+
001960 2000          tst  r0
001961 f411          brne strstrf2
001962 01fc          movw r30,r24
001963 c009          rjmp strstrf3
                 strstrf2:
001964 916d          ld   r22,x+
001965 1560          cp   r22,r0
001966 f3c1          breq strstrf1
001967 9601          adiw r24,1
001968 01dc          movw r26,r24
001969 2366          tst  r22
00196a f791          brne strstrf0
00196b 27ee          clr  r30
00196c 27ff          clr  r31
                 strstrf3:
00196d 9624      	ADIW R28,4
00196e 9508      	RET
                 ; .FEND
                 
                 	.CSEG
                 _ltoa:
                 ; .FSTART _ltoa
00196f 93ba      	ST   -Y,R27
001970 93aa      	ST   -Y,R26
001971 9724      	SBIW R28,4
001972 931a      	ST   -Y,R17
001973 930a      	ST   -Y,R16
                +
001974 e0e0     +LDI R30 , LOW ( 0x3B9ACA00 )
001975 ecfa     +LDI R31 , HIGH ( 0x3B9ACA00 )
001976 e96a     +LDI R22 , BYTE3 ( 0x3B9ACA00 )
001977 e37b     +LDI R23 , BYTE4 ( 0x3B9ACA00 )
                 	__GETD1N 0x3B9ACA00
001978 940e 1ba6 	CALL SUBOPT_0x46
00197a e000      	LDI  R16,LOW(0)
00197b 85ab      	LDD  R26,Y+11
00197c 23aa      	TST  R26
00197d f452      	BRPL _0x20A0003
00197e 940e 1a12 	CALL SUBOPT_0xD
001980 940e 1d61 	CALL __ANEGD1
001982 940e 1b5f 	CALL SUBOPT_0x3A
001984 940e 1d2a 	CALL SUBOPT_0x81
001986 e2ed      	LDI  R30,LOW(45)
001987 93ec      	ST   X,R30
                 _0x20A0003:
                 _0x20A0005:
001988 940e 1d31 	CALL SUBOPT_0x82
00198a 940e 1de0 	CALL __DIVD21U
00198c 2f1e      	MOV  R17,R30
00198d 3010      	CPI  R17,0
00198e f439      	BRNE _0x20A0008
00198f 3000      	CPI  R16,0
001990 f429      	BRNE _0x20A0008
001991 940e 1b83 	CALL SUBOPT_0x41
001993 940e 1b07 	CALL SUBOPT_0x2B
001995 f431      	BRNE _0x20A0007
                 _0x20A0008:
001996 940e 1d2a 	CALL SUBOPT_0x81
001998 2fe1      	MOV  R30,R17
001999 5de0      	SUBI R30,-LOW(48)
00199a 93ec      	ST   X,R30
00199b e001      	LDI  R16,LOW(1)
                 _0x20A0007:
00199c 940e 1d31 	CALL SUBOPT_0x82
00199e 940e 1e0a 	CALL __MODD21U
0019a0 940e 1b5f 	CALL SUBOPT_0x3A
0019a2 940e 1b83 	CALL SUBOPT_0x41
                +
0019a4 e0ea     +LDI R30 , LOW ( 0xA )
0019a5 e0f0     +LDI R31 , HIGH ( 0xA )
0019a6 e060     +LDI R22 , BYTE3 ( 0xA )
0019a7 e070     +LDI R23 , BYTE4 ( 0xA )
                 	__GETD1N 0xA
0019a8 940e 1de0 	CALL __DIVD21U
0019aa 940e 1ba6 	CALL SUBOPT_0x46
0019ac 940e 1b95 	CALL SUBOPT_0x44
0019ae f6c9      	BRNE _0x20A0005
0019af 81ae      	LDD  R26,Y+6
0019b0 81bf      	LDD  R27,Y+6+1
0019b1 e0e0      	LDI  R30,LOW(0)
0019b2 93ec      	ST   X,R30
0019b3 8119      	LDD  R17,Y+1
0019b4 8108      	LDD  R16,Y+0
0019b5 962c      	ADIW R28,12
0019b6 9508      	RET
                 ; .FEND
                 
                 	.DSEG
                 
                 	.CSEG
                 
                 	.CSEG
                 
                 	.CSEG
                 
                 	.DSEG
                 _prtc_get_time:
000500           	.BYTE 0x2
                 _prtc_get_date:
000502           	.BYTE 0x2
                 _fat:
000504           	.BYTE 0x232
                 _file:
000736           	.BYTE 0x220
                 _path:
000956           	.BYTE 0x100
                 _arquivo:
000a56           	.BYTE 0xB
                 _text1:
000a61           	.BYTE 0x21
                 _rx_buffer:
000a82           	.BYTE 0x40
                 _matriz:
000ac2           	.BYTE 0xA
                 _inde1:
000acc           	.BYTE 0x1
                 _tamanho:
000acd           	.BYTE 0x2
                 _i:
000acf           	.BYTE 0x4
                 _MH:
000ad3           	.BYTE 0x1
                 _ML:
000ad4           	.BYTE 0x1
                 _flg:
000ad5           	.BYTE 0x1
                 _status_G100:
000ad6           	.BYTE 0x1
                 _timer1_G100:
000ad7           	.BYTE 0x1
                 _timer2_G100:
000ad8           	.BYTE 0x1
                 _card_type_G100:
000ad9           	.BYTE 0x1
                 _FatFs_G101:
000ada           	.BYTE 0x2
                 _Fsid_G101:
000adc           	.BYTE 0x2
                 _Drive_G101:
000ade           	.BYTE 0x1
                 __base_y_G103:
000adf           	.BYTE 0x4
                 __seed_G105:
000ae3           	.BYTE 0x4
                 
                 	.CSEG
                 ;OPTIMIZER ADDED SUBROUTINE, CALLED 12 TIMES, CODE SIZE REDUCTION:30 WORDS
                 SUBOPT_0x0:
0019b7 e0e0      	LDI  R30,LOW(0)
0019b8 93ea      	ST   -Y,R30
0019b9 e0a0      	LDI  R26,LOW(0)
0019ba 940c 1886 	JMP  _lcd_gotoxy
                 
                 ;OPTIMIZER ADDED SUBROUTINE, CALLED 7 TIMES, CODE SIZE REDUCTION:27 WORDS
                 SUBOPT_0x1:
0019bc 940e 18c3 	CALL _lcd_putsf
0019be e0e0      	LDI  R30,LOW(0)
0019bf 93ea      	ST   -Y,R30
0019c0 e0a1      	LDI  R26,LOW(1)
0019c1 940c 1886 	JMP  _lcd_gotoxy
                 
                 ;OPTIMIZER ADDED SUBROUTINE, CALLED 3 TIMES, CODE SIZE REDUCTION:11 WORDS
                 SUBOPT_0x2:
0019c3 940e 034b 	CALL _tx_dado
0019c5 e0a5      	LDI  R26,LOW(5)
0019c6 940e 02e2 	CALL _rx_serial
0019c8 e8e2      	LDI  R30,LOW(_rx_buffer)
0019c9 e0fa      	LDI  R31,HIGH(_rx_buffer)
0019ca 93fa      	ST   -Y,R31
0019cb 93ea      	ST   -Y,R30
0019cc 9508      	RET
                 
                 ;OPTIMIZER ADDED SUBROUTINE, CALLED 2 TIMES, CODE SIZE REDUCTION:3 WORDS
                 SUBOPT_0x3:
0019cd 91a0 0acf 	LDS  R26,_i
0019cf 91b0 0ad0 	LDS  R27,_i+1
0019d1 9180 0ad1 	LDS  R24,_i+2
0019d3 9190 0ad2 	LDS  R25,_i+3
0019d5 9508      	RET
                 
                 ;OPTIMIZER ADDED SUBROUTINE, CALLED 3 TIMES, CODE SIZE REDUCTION:1 WORDS
                 SUBOPT_0x4:
                +
0019d6 e0e0     +LDI R30 , LOW ( 0x100 )
0019d7 e0f1     +LDI R31 , HIGH ( 0x100 )
0019d8 e060     +LDI R22 , BYTE3 ( 0x100 )
0019d9 e070     +LDI R23 , BYTE4 ( 0x100 )
                 	__GETD1N 0x100
0019da 9508      	RET
                 
                 ;OPTIMIZER ADDED SUBROUTINE, CALLED 6 TIMES, CODE SIZE REDUCTION:12 WORDS
                 SUBOPT_0x5:
0019db 940e 16f3 	CALL _putchar
0019dd e0a0      	LDI  R26,LOW(0)
0019de 940c 16f3 	JMP  _putchar
                 
                 ;OPTIMIZER ADDED SUBROUTINE, CALLED 2 TIMES, CODE SIZE REDUCTION:1 WORDS
                 SUBOPT_0x6:
0019e0 940e 18c3 	CALL _lcd_putsf
0019e2 edac      	LDI  R26,LOW(1500)
0019e3 e0b5      	LDI  R27,HIGH(1500)
0019e4 940c 1d36 	JMP  _delay_ms
                 
                 ;OPTIMIZER ADDED SUBROUTINE, CALLED 3 TIMES, CODE SIZE REDUCTION:3 WORDS
                 SUBOPT_0x7:
0019e6 e0f0      	LDI  R31,0
0019e7 940e 1da2 	CALL __CWD1
0019e9 01df      	MOVW R26,R30
0019ea 01cb      	MOVW R24,R22
0019eb 9508      	RET
                 
                 ;OPTIMIZER ADDED SUBROUTINE, CALLED 3 TIMES, CODE SIZE REDUCTION:1 WORDS
                 SUBOPT_0x8:
                +
0019ec 83e9     +STD Y + 1 , R30
0019ed 83fa     +STD Y + 1 + 1 , R31
0019ee 836b     +STD Y + 1 + 2 , R22
0019ef 837c     +STD Y + 1 + 3 , R23
                 	__PUTD1S 1
0019f0 9508      	RET
                 
                 ;OPTIMIZER ADDED SUBROUTINE, CALLED 3 TIMES, CODE SIZE REDUCTION:1 WORDS
                 SUBOPT_0x9:
                +
0019f1 81ed     +LDD R30 , Y + 5
0019f2 81fe     +LDD R31 , Y + 5 + 1
0019f3 816f     +LDD R22 , Y + 5 + 2
0019f4 8578     +LDD R23 , Y + 5 + 3
                 	__GETD1S 5
0019f5 9508      	RET
                 
                 ;OPTIMIZER ADDED SUBROUTINE, CALLED 5 TIMES, CODE SIZE REDUCTION:5 WORDS
                 SUBOPT_0xA:
                +
0019f6 81a9     +LDD R26 , Y + 1
0019f7 81ba     +LDD R27 , Y + 1 + 1
0019f8 818b     +LDD R24 , Y + 1 + 2
0019f9 819c     +LDD R25 , Y + 1 + 3
                 	__GETD2S 1
0019fa 9508      	RET
                 
                 ;OPTIMIZER ADDED SUBROUTINE, CALLED 2 TIMES, CODE SIZE REDUCTION:13 WORDS
                 SUBOPT_0xB:
0019fb 85e9      	LDD  R30,Y+9
0019fc 85fa      	LDD  R31,Y+9+1
0019fd 81a1      	LDD  R26,Z+1
0019fe 93aa      	ST   -Y,R26
0019ff 85ea      	LDD  R30,Y+10
001a00 85fb      	LDD  R31,Y+10+1
001a01 96f2      	ADIW R30,50
001a02 93fa      	ST   -Y,R31
001a03 93ea      	ST   -Y,R30
                +
001a04 81ec     +LDD R30 , Y + 4
001a05 81fd     +LDD R31 , Y + 4 + 1
001a06 816e     +LDD R22 , Y + 4 + 2
001a07 817f     +LDD R23 , Y + 4 + 3
                 	__GETD1S 4
001a08 940e 1e52 	CALL __PUTPARD1
001a0a e0a1      	LDI  R26,LOW(1)
001a0b 940c 06db 	JMP  _disk_write
                 
                 ;OPTIMIZER ADDED SUBROUTINE, CALLED 3 TIMES, CODE SIZE REDUCTION:1 WORDS
                 SUBOPT_0xC:
                +
001a0d a1a2     +LDD R26 , Z + 34
001a0e a1b3     +LDD R27 , Z + 34 + 1
001a0f a184     +LDD R24 , Z + 34 + 2
001a10 a195     +LDD R25 , Z + 34 + 3
                 	__GETD2Z 34
001a11 9508      	RET
                 
                 ;OPTIMIZER ADDED SUBROUTINE, CALLED 9 TIMES, CODE SIZE REDUCTION:13 WORDS
                 SUBOPT_0xD:
                +
001a12 85e8     +LDD R30 , Y + 8
001a13 85f9     +LDD R31 , Y + 8 + 1
001a14 856a     +LDD R22 , Y + 8 + 2
001a15 857b     +LDD R23 , Y + 8 + 3
                 	__GETD1S 8
001a16 9508      	RET
                 
                 ;OPTIMIZER ADDED SUBROUTINE, CALLED 3 TIMES, CODE SIZE REDUCTION:5 WORDS
                 SUBOPT_0xE:
001a17 940e 1e52 	CALL __PUTPARD1
001a19 e0a1      	LDI  R26,LOW(1)
001a1a 940e 0677 	CALL _disk_read
001a1c 30e0      	CPI  R30,0
001a1d 9508      	RET
                 
                 ;OPTIMIZER ADDED SUBROUTINE, CALLED 2 TIMES, CODE SIZE REDUCTION:2 WORDS
                 SUBOPT_0xF:
001a1e 93ba      	ST   -Y,R27
001a1f 93aa      	ST   -Y,R26
001a20 931a      	ST   -Y,R17
001a21 81e9      	LDD  R30,Y+1
001a22 81fa      	LDD  R31,Y+1+1
001a23 93fa      	ST   -Y,R31
001a24 93ea      	ST   -Y,R30
001a25 9508      	RET
                 
                 ;OPTIMIZER ADDED SUBROUTINE, CALLED 6 TIMES, CODE SIZE REDUCTION:7 WORDS
                 SUBOPT_0x10:
                +
001a26 e0a0     +LDI R26 , LOW ( 0x0 )
001a27 e0b0     +LDI R27 , HIGH ( 0x0 )
001a28 e080     +LDI R24 , BYTE3 ( 0x0 )
001a29 e090     +LDI R25 , BYTE4 ( 0x0 )
                 	__GETD2N 0x0
001a2a 9508      	RET
                 
                 ;OPTIMIZER ADDED SUBROUTINE, CALLED 8 TIMES, CODE SIZE REDUCTION:11 WORDS
                 SUBOPT_0x11:
001a2b 940e 098e 	CALL _move_window_G101
001a2d 2f1e      	MOV  R17,R30
001a2e 3010      	CPI  R17,0
001a2f 9508      	RET
                 
                 ;OPTIMIZER ADDED SUBROUTINE, CALLED 2 TIMES, CODE SIZE REDUCTION:2 WORDS
                 SUBOPT_0x12:
001a30 969e      	ADIW R26,46
                +
001a31 e0e0     +LDI R30 , LOW ( 0x0 )
001a32 e0f0     +LDI R31 , HIGH ( 0x0 )
001a33 e060     +LDI R22 , BYTE3 ( 0x0 )
001a34 e070     +LDI R23 , BYTE4 ( 0x0 )
                 	__GETD1N 0x0
001a35 940e 1e30 	CALL __PUTDP1
001a37 9508      	RET
                 
                 ;OPTIMIZER ADDED SUBROUTINE, CALLED 2 TIMES, CODE SIZE REDUCTION:4 WORDS
                 SUBOPT_0x13:
001a38 96f2      	ADIW R30,50
001a39 93fa      	ST   -Y,R31
001a3a 93ea      	ST   -Y,R30
001a3b e0e0      	LDI  R30,LOW(0)
001a3c 93ea      	ST   -Y,R30
001a3d e0a0      	LDI  R26,LOW(512)
001a3e e0b2      	LDI  R27,HIGH(512)
001a3f 940c 192f 	JMP  _memset
                 
                 ;OPTIMIZER ADDED SUBROUTINE, CALLED 2 TIMES, CODE SIZE REDUCTION:2 WORDS
                 SUBOPT_0x14:
001a41 940e 1e4d 	CALL __PUTDZ20
001a43 81e9      	LDD  R30,Y+1
001a44 81fa      	LDD  R31,Y+1+1
001a45 96f2      	ADIW R30,50
001a46 9508      	RET
                 
                 ;OPTIMIZER ADDED SUBROUTINE, CALLED 2 TIMES, CODE SIZE REDUCTION:2 WORDS
                 SUBOPT_0x15:
001a47 940e 1e25 	CALL __GETD1P
001a49 01d0      	MOVW R26,R0
001a4a 940e 1e30 	CALL __PUTDP1
001a4c 81e9      	LDD  R30,Y+1
001a4d 81fa      	LDD  R31,Y+1+1
001a4e 9508      	RET
                 
                 ;OPTIMIZER ADDED SUBROUTINE, CALLED 2 TIMES, CODE SIZE REDUCTION:2 WORDS
                 SUBOPT_0x16:
                +
001a4f 89a2     +LDD R26 , Z + 18
001a50 89b3     +LDD R27 , Z + 18 + 1
001a51 8984     +LDD R24 , Z + 18 + 2
001a52 8995     +LDD R25 , Z + 18 + 3
                 	__GETD2Z 18
001a53 940e 1e57 	CALL __PUTPARD2
001a55 e0a1      	LDI  R26,LOW(1)
001a56 9508      	RET
                 
                 ;OPTIMIZER ADDED SUBROUTINE, CALLED 12 TIMES, CODE SIZE REDUCTION:19 WORDS
                 SUBOPT_0x17:
                +
001a57 85a8     +LDD R26 , Y + 8
001a58 85b9     +LDD R27 , Y + 8 + 1
001a59 858a     +LDD R24 , Y + 8 + 2
001a5a 859b     +LDD R25 , Y + 8 + 3
                 	__GETD2S 8
001a5b 9508      	RET
                 
                 ;OPTIMIZER ADDED SUBROUTINE, CALLED 7 TIMES, CODE SIZE REDUCTION:27 WORDS
                 SUBOPT_0x18:
                +
001a5c 30a2     +CPI R26 , LOW ( 0x2 )
001a5d e0e0     +LDI R30 , HIGH ( 0x2 )
001a5e 07be     +CPC R27 , R30
001a5f e0e0     +LDI R30 , BYTE3 ( 0x2 )
001a60 078e     +CPC R24 , R30
001a61 e0e0     +LDI R30 , BYTE4 ( 0x2 )
001a62 079e     +CPC R25 , R30
                 	__CPD2N 0x2
001a63 9508      	RET
                 
                 ;OPTIMIZER ADDED SUBROUTINE, CALLED 3 TIMES, CODE SIZE REDUCTION:1 WORDS
                 SUBOPT_0x19:
                +
001a64 e0e1     +LDI R30 , LOW ( 0x1 )
001a65 e0f0     +LDI R31 , HIGH ( 0x1 )
001a66 e060     +LDI R22 , BYTE3 ( 0x1 )
001a67 e070     +LDI R23 , BYTE4 ( 0x1 )
                 	__GETD1N 0x1
001a68 9508      	RET
                 
                 ;OPTIMIZER ADDED SUBROUTINE, CALLED 3 TIMES, CODE SIZE REDUCTION:5 WORDS
                 SUBOPT_0x1A:
001a69 940e 1e25 	CALL __GETD1P
                +
001a6b 83ec     +STD Y + 4 , R30
001a6c 83fd     +STD Y + 4 + 1 , R31
001a6d 836e     +STD Y + 4 + 2 , R22
001a6e 837f     +STD Y + 4 + 3 , R23
                 	__PUTD1S 4
001a6f 9508      	RET
                 
                 ;OPTIMIZER ADDED SUBROUTINE, CALLED 2 TIMES, CODE SIZE REDUCTION:15 WORDS
                 SUBOPT_0x1B:
001a70 85ec      	LDD  R30,Y+12
001a71 85fd      	LDD  R31,Y+12+1
001a72 93fa      	ST   -Y,R31
001a73 93ea      	ST   -Y,R30
001a74 01d9      	MOVW R26,R18
001a75 e0e0      	LDI  R30,LOW(512)
001a76 e0f2      	LDI  R31,HIGH(512)
001a77 940e 1dcd 	CALL __DIVW21U
                +
001a79 81ae     +LDD R26 , Y + 6
001a7a 81bf     +LDD R27 , Y + 6 + 1
001a7b 8588     +LDD R24 , Y + 6 + 2
001a7c 8599     +LDD R25 , Y + 6 + 3
                 	__GETD2S 6
001a7d 2766      	CLR  R22
001a7e 2777      	CLR  R23
001a7f 940e 1d49 	CALL __ADDD21
001a81 940e 098e 	CALL _move_window_G101
001a83 30e0      	CPI  R30,0
001a84 9508      	RET
                 
                 ;OPTIMIZER ADDED SUBROUTINE, CALLED 2 TIMES, CODE SIZE REDUCTION:2 WORDS
                 SUBOPT_0x1C:
001a85 85ac      	LDD  R26,Y+12
001a86 85bd      	LDD  R27,Y+12+1
001a87 96d2      	ADIW R26,50
001a88 01f9      	MOVW R30,R18
001a89 70f1      	ANDI R31,HIGH(0x1FF)
001a8a 0fae      	ADD  R26,R30
001a8b 1fbf      	ADC  R27,R31
001a8c 9508      	RET
                 
                 ;OPTIMIZER ADDED SUBROUTINE, CALLED 2 TIMES, CODE SIZE REDUCTION:3 WORDS
                 SUBOPT_0x1D:
001a8d 85ec      	LDD  R30,Y+12
001a8e 85fd      	LDD  R31,Y+12+1
001a8f 93fa      	ST   -Y,R31
001a90 93ea      	ST   -Y,R30
                +
001a91 85aa     +LDD R26 , Y + 10
001a92 85bb     +LDD R27 , Y + 10 + 1
001a93 858c     +LDD R24 , Y + 10 + 2
001a94 859d     +LDD R25 , Y + 10 + 3
                 	__GETD2S 10
001a95 9508      	RET
                 
                 ;OPTIMIZER ADDED SUBROUTINE, CALLED 2 TIMES, CODE SIZE REDUCTION:6 WORDS
                 SUBOPT_0x1E:
001a96 940e 1de0 	CALL __DIVD21U
                +
001a98 81ae     +LDD R26 , Y + 6
001a99 81bf     +LDD R27 , Y + 6 + 1
001a9a 8588     +LDD R24 , Y + 6 + 2
001a9b 8599     +LDD R25 , Y + 6 + 3
                 	__GETD2S 6
001a9c 940e 1d49 	CALL __ADDD21
001a9e 940e 098e 	CALL _move_window_G101
001aa0 30e0      	CPI  R30,0
001aa1 9508      	RET
                 
                 ;OPTIMIZER ADDED SUBROUTINE, CALLED 2 TIMES, CODE SIZE REDUCTION:3 WORDS
                 SUBOPT_0x1F:
001aa2 940e 1dc7 	CALL __MULB1W2U
001aa4 70f1      	ANDI R31,HIGH(0x1FF)
001aa5 85ac      	LDD  R26,Y+12
001aa6 85bd      	LDD  R27,Y+12+1
001aa7 96d2      	ADIW R26,50
001aa8 0fae      	ADD  R26,R30
001aa9 1fbf      	ADC  R27,R31
001aaa 9508      	RET
                 
                 ;OPTIMIZER ADDED SUBROUTINE, CALLED 7 TIMES, CODE SIZE REDUCTION:9 WORDS
                 SUBOPT_0x20:
001aab 940e 1e21 	CALL __GETW1P
001aad 2766      	CLR  R22
001aae 2777      	CLR  R23
001aaf 9508      	RET
                 
                 ;OPTIMIZER ADDED SUBROUTINE, CALLED 4 TIMES, CODE SIZE REDUCTION:3 WORDS
                 SUBOPT_0x21:
                +
001ab0 efef     +LDI R30 , LOW ( 0xFFFFFFFF )
001ab1 efff     +LDI R31 , HIGH ( 0xFFFFFFFF )
001ab2 ef6f     +LDI R22 , BYTE3 ( 0xFFFFFFFF )
001ab3 ef7f     +LDI R23 , BYTE4 ( 0xFFFFFFFF )
                 	__GETD1N 0xFFFFFFFF
001ab4 9508      	RET
                 
                 ;OPTIMIZER ADDED SUBROUTINE, CALLED 4 TIMES, CODE SIZE REDUCTION:3 WORDS
                 SUBOPT_0x22:
                +
001ab5 85ae     +LDD R26 , Y + 14
001ab6 85bf     +LDD R27 , Y + 14 + 1
001ab7 8988     +LDD R24 , Y + 14 + 2
001ab8 8999     +LDD R25 , Y + 14 + 3
                 	__GETD2S 14
001ab9 9508      	RET
                 
                 ;OPTIMIZER ADDED SUBROUTINE, CALLED 2 TIMES, CODE SIZE REDUCTION:14 WORDS
                 SUBOPT_0x23:
001aba 89ea      	LDD  R30,Y+18
001abb 89fb      	LDD  R31,Y+18+1
001abc 93fa      	ST   -Y,R31
001abd 93ea      	ST   -Y,R30
001abe 01d8      	MOVW R26,R16
001abf e0e0      	LDI  R30,LOW(512)
001ac0 e0f2      	LDI  R31,HIGH(512)
001ac1 940e 1dcd 	CALL __DIVW21U
001ac3 df93      	RCALL SUBOPT_0x17
001ac4 2766      	CLR  R22
001ac5 2777      	CLR  R23
001ac6 940e 1d49 	CALL __ADDD21
001ac8 940e 098e 	CALL _move_window_G101
001aca 2f5e      	MOV  R21,R30
001acb 3050      	CPI  R21,0
001acc 9508      	RET
                 
                 ;OPTIMIZER ADDED SUBROUTINE, CALLED 2 TIMES, CODE SIZE REDUCTION:5 WORDS
                 SUBOPT_0x24:
001acd 89aa      	LDD  R26,Y+18
001ace 89bb      	LDD  R27,Y+18+1
001acf 96d2      	ADIW R26,50
001ad0 01f8      	MOVW R30,R16
001ad1 70f1      	ANDI R31,HIGH(0x1FF)
001ad2 0fea      	ADD  R30,R26
001ad3 1ffb      	ADC  R31,R27
001ad4 019f      	MOVW R18,R30
001ad5 85ee      	LDD  R30,Y+14
001ad6 70e1      	ANDI R30,LOW(0x1)
001ad7 9508      	RET
                 
                 ;OPTIMIZER ADDED SUBROUTINE, CALLED 6 TIMES, CODE SIZE REDUCTION:7 WORDS
                 SUBOPT_0x25:
                +
001ad8 85aa     +LDD R26 , Y + 10
001ad9 85bb     +LDD R27 , Y + 10 + 1
001ada 858c     +LDD R24 , Y + 10 + 2
001adb 859d     +LDD R25 , Y + 10 + 3
                 	__GETD2S 10
001adc 9508      	RET
                 
                 ;OPTIMIZER ADDED SUBROUTINE, CALLED 2 TIMES, CODE SIZE REDUCTION:3 WORDS
                 SUBOPT_0x26:
001add 89ea      	LDD  R30,Y+18
001ade 89fb      	LDD  R31,Y+18+1
001adf 93fa      	ST   -Y,R31
001ae0 93ea      	ST   -Y,R30
                +
001ae1 89a8     +LDD R26 , Y + 16
001ae2 89b9     +LDD R27 , Y + 16 + 1
001ae3 898a     +LDD R24 , Y + 16 + 2
001ae4 899b     +LDD R25 , Y + 16 + 3
                 	__GETD2S 16
001ae5 9508      	RET
                 
                 ;OPTIMIZER ADDED SUBROUTINE, CALLED 2 TIMES, CODE SIZE REDUCTION:5 WORDS
                 SUBOPT_0x27:
001ae6 940e 1de0 	CALL __DIVD21U
001ae8 df6e      	RCALL SUBOPT_0x17
001ae9 940e 1d49 	CALL __ADDD21
001aeb 940e 098e 	CALL _move_window_G101
001aed 2f5e      	MOV  R21,R30
001aee 3050      	CPI  R21,0
001aef 9508      	RET
                 
                 ;OPTIMIZER ADDED SUBROUTINE, CALLED 2 TIMES, CODE SIZE REDUCTION:3 WORDS
                 SUBOPT_0x28:
001af0 940e 1dc7 	CALL __MULB1W2U
001af2 70f1      	ANDI R31,HIGH(0x1FF)
001af3 89aa      	LDD  R26,Y+18
001af4 89bb      	LDD  R27,Y+18+1
001af5 96d2      	ADIW R26,50
001af6 0fea      	ADD  R30,R26
001af7 1ffb      	ADC  R31,R27
001af8 9508      	RET
                 
                 ;OPTIMIZER ADDED SUBROUTINE, CALLED 3 TIMES, CODE SIZE REDUCTION:1 WORDS
                 SUBOPT_0x29:
                +
001af9 81ad     +LDD R26 , Y + 5
001afa 81be     +LDD R27 , Y + 5 + 1
001afb 818f     +LDD R24 , Y + 5 + 2
001afc 8598     +LDD R25 , Y + 5 + 3
                 	__GETD2S 5
001afd 9508      	RET
                 
                 ;OPTIMIZER ADDED SUBROUTINE, CALLED 2 TIMES, CODE SIZE REDUCTION:4 WORDS
                 SUBOPT_0x2A:
001afe 85a9      	LDD  R26,Y+9
001aff 85ba      	LDD  R27,Y+9+1
001b00 965e      	ADIW R26,30
001b01 940e 1e25 	CALL __GETD1P
001b03 dff5      	RCALL SUBOPT_0x29
001b04 940e 1e78 	CALL __CPD21
001b06 9508      	RET
                 
                 ;OPTIMIZER ADDED SUBROUTINE, CALLED 6 TIMES, CODE SIZE REDUCTION:22 WORDS
                 SUBOPT_0x2B:
                +
001b07 30a1     +CPI R26 , LOW ( 0x1 )
001b08 e0e0     +LDI R30 , HIGH ( 0x1 )
001b09 07be     +CPC R27 , R30
001b0a e0e0     +LDI R30 , BYTE3 ( 0x1 )
001b0b 078e     +CPC R24 , R30
001b0c e0e0     +LDI R30 , BYTE4 ( 0x1 )
001b0d 079e     +CPC R25 , R30
                 	__CPD2N 0x1
001b0e 9508      	RET
                 
                 ;OPTIMIZER ADDED SUBROUTINE, CALLED 8 TIMES, CODE SIZE REDUCTION:32 WORDS
                 SUBOPT_0x2C:
                +
001b0f 3faf     +CPI R26 , LOW ( 0xFFFFFFFF )
001b10 efef     +LDI R30 , HIGH ( 0xFFFFFFFF )
001b11 07be     +CPC R27 , R30
001b12 efef     +LDI R30 , BYTE3 ( 0xFFFFFFFF )
001b13 078e     +CPC R24 , R30
001b14 efef     +LDI R30 , BYTE4 ( 0xFFFFFFFF )
001b15 079e     +CPC R25 , R30
                 	__CPD2N 0xFFFFFFFF
001b16 9508      	RET
                 
                 ;OPTIMIZER ADDED SUBROUTINE, CALLED 2 TIMES, CODE SIZE REDUCTION:1 WORDS
                 SUBOPT_0x2D:
                +
001b17 85a6     +LDD R26 , Z + 14
001b18 85b7     +LDD R27 , Z + 14 + 1
001b19 8980     +LDD R24 , Z + 14 + 2
001b1a 8991     +LDD R25 , Z + 14 + 3
                 	__GETD2Z 14
001b1b cff3      	RJMP SUBOPT_0x2C
                 
                 ;OPTIMIZER ADDED SUBROUTINE, CALLED 2 TIMES, CODE SIZE REDUCTION:8 WORDS
                 SUBOPT_0x2E:
001b1c 85a9      	LDD  R26,Y+9
001b1d 85ba      	LDD  R27,Y+9+1
001b1e 961e      	ADIW R26,14
001b1f 940e 1e2b 	CALL __GETD1P_INC
                +
001b21 5fef     +SUBI R30 , LOW ( - 1 )
001b22 4fff     +SBCI R31 , HIGH ( - 1 )
001b23 4f6f     +SBCI R22 , BYTE3 ( - 1 )
001b24 4f7f     +SBCI R23 , BYTE4 ( - 1 )
                 	__SUBD1N -1
001b25 940e 1e35 	CALL __PUTDP1_DEC
001b27 85a9      	LDD  R26,Y+9
001b28 85ba      	LDD  R27,Y+9+1
001b29 9508      	RET
                 
                 ;OPTIMIZER ADDED SUBROUTINE, CALLED 3 TIMES, CODE SIZE REDUCTION:1 WORDS
                 SUBOPT_0x2F:
001b2a 940e 1e48 	CALL __PUTD1S0
001b2c 9508      	RET
                 
                 ;OPTIMIZER ADDED SUBROUTINE, CALLED 3 TIMES, CODE SIZE REDUCTION:1 WORDS
                 SUBOPT_0x30:
                +
001b2d 89e8     +LDD R30 , Y + 16
001b2e 89f9     +LDD R31 , Y + 16 + 1
001b2f 896a     +LDD R22 , Y + 16 + 2
001b30 897b     +LDD R23 , Y + 16 + 3
                 	__GETD1S 16
001b31 9508      	RET
                 
                 ;OPTIMIZER ADDED SUBROUTINE, CALLED 10 TIMES, CODE SIZE REDUCTION:15 WORDS
                 SUBOPT_0x31:
                +
001b32 81ac     +LDD R26 , Y + 4
001b33 81bd     +LDD R27 , Y + 4 + 1
001b34 818e     +LDD R24 , Y + 4 + 2
001b35 819f     +LDD R25 , Y + 4 + 3
                 	__GETD2S 4
001b36 9508      	RET
                 
                 ;OPTIMIZER ADDED SUBROUTINE, CALLED 6 TIMES, CODE SIZE REDUCTION:7 WORDS
                 SUBOPT_0x32:
001b37 940e 1e3e 	CALL __GETD1S0
001b39 9508      	RET
                 
                 ;OPTIMIZER ADDED SUBROUTINE, CALLED 7 TIMES, CODE SIZE REDUCTION:9 WORDS
                 SUBOPT_0x33:
                +
001b3a 83ec     +STD Y + 4 , R30
001b3b 83fd     +STD Y + 4 + 1 , R31
001b3c 836e     +STD Y + 4 + 2 , R22
001b3d 837f     +STD Y + 4 + 3 , R23
                 	__PUTD1S 4
001b3e 9508      	RET
                 
                 ;OPTIMIZER ADDED SUBROUTINE, CALLED 4 TIMES, CODE SIZE REDUCTION:3 WORDS
                 SUBOPT_0x34:
001b3f 89ec      	LDD  R30,Y+20
001b40 89fd      	LDD  R31,Y+20+1
001b41 93fa      	ST   -Y,R31
001b42 93ea      	ST   -Y,R30
001b43 9508      	RET
                 
                 ;OPTIMIZER ADDED SUBROUTINE, CALLED 3 TIMES, CODE SIZE REDUCTION:1 WORDS
                 SUBOPT_0x35:
                +
001b44 89aa     +LDD R26 , Y + 18
001b45 89bb     +LDD R27 , Y + 18 + 1
001b46 898c     +LDD R24 , Y + 18 + 2
001b47 899d     +LDD R25 , Y + 18 + 3
                 	__GETD2S 18
001b48 9508      	RET
                 
                 ;OPTIMIZER ADDED SUBROUTINE, CALLED 2 TIMES, CODE SIZE REDUCTION:1 WORDS
                 SUBOPT_0x36:
001b49 940e 0a5d 	CALL _get_fat
                +
001b4b 87ec     +STD Y + 12 , R30
001b4c 87fd     +STD Y + 12 + 1 , R31
001b4d 876e     +STD Y + 12 + 2 , R22
001b4e 877f     +STD Y + 12 + 3 , R23
                 	__PUTD1S 12
001b4f 9508      	RET
                 
                 ;OPTIMIZER ADDED SUBROUTINE, CALLED 6 TIMES, CODE SIZE REDUCTION:7 WORDS
                 SUBOPT_0x37:
                +
001b50 85ac     +LDD R26 , Y + 12
001b51 85bd     +LDD R27 , Y + 12 + 1
001b52 858e     +LDD R24 , Y + 12 + 2
001b53 859f     +LDD R25 , Y + 12 + 3
                 	__GETD2S 12
001b54 9508      	RET
                 
                 ;OPTIMIZER ADDED SUBROUTINE, CALLED 6 TIMES, CODE SIZE REDUCTION:7 WORDS
                 SUBOPT_0x38:
                +
001b55 85ec     +LDD R30 , Y + 12
001b56 85fd     +LDD R31 , Y + 12 + 1
001b57 856e     +LDD R22 , Y + 12 + 2
001b58 857f     +LDD R23 , Y + 12 + 3
                 	__GETD1S 12
001b59 9508      	RET
                 
                 ;OPTIMIZER ADDED SUBROUTINE, CALLED 9 TIMES, CODE SIZE REDUCTION:13 WORDS
                 SUBOPT_0x39:
                +
001b5a 81ec     +LDD R30 , Y + 4
001b5b 81fd     +LDD R31 , Y + 4 + 1
001b5c 816e     +LDD R22 , Y + 4 + 2
001b5d 817f     +LDD R23 , Y + 4 + 3
                 	__GETD1S 4
001b5e 9508      	RET
                 
                 ;OPTIMIZER ADDED SUBROUTINE, CALLED 7 TIMES, CODE SIZE REDUCTION:9 WORDS
                 SUBOPT_0x3A:
                +
001b5f 87e8     +STD Y + 8 , R30
001b60 87f9     +STD Y + 8 + 1 , R31
001b61 876a     +STD Y + 8 + 2 , R22
001b62 877b     +STD Y + 8 + 3 , R23
                 	__PUTD1S 8
001b63 9508      	RET
                 
                 ;OPTIMIZER ADDED SUBROUTINE, CALLED 2 TIMES, CODE SIZE REDUCTION:1 WORDS
                 SUBOPT_0x3B:
001b64 dff5      	RCALL SUBOPT_0x39
001b65 def1      	RCALL SUBOPT_0x17
001b66 940e 1e73 	CALL __CPD12
001b68 9508      	RET
                 
                 ;OPTIMIZER ADDED SUBROUTINE, CALLED 9 TIMES, CODE SIZE REDUCTION:13 WORDS
                 SUBOPT_0x3C:
                +
001b69 e0e0     +LDI R30 , LOW ( 0x0 )
001b6a e0f0     +LDI R31 , HIGH ( 0x0 )
001b6b e060     +LDI R22 , BYTE3 ( 0x0 )
001b6c e070     +LDI R23 , BYTE4 ( 0x0 )
                 	__GETD1N 0x0
001b6d 9508      	RET
                 
                 ;OPTIMIZER ADDED SUBROUTINE, CALLED 3 TIMES, CODE SIZE REDUCTION:1 WORDS
                 SUBOPT_0x3D:
001b6e dfe6      	RCALL SUBOPT_0x38
001b6f 940e 1e69 	CALL __CPD10
001b71 9508      	RET
                 
                 ;OPTIMIZER ADDED SUBROUTINE, CALLED 5 TIMES, CODE SIZE REDUCTION:5 WORDS
                 SUBOPT_0x3E:
                +
001b72 89ea     +LDD R30 , Y + 18
001b73 89fb     +LDD R31 , Y + 18 + 1
001b74 896c     +LDD R22 , Y + 18 + 2
001b75 897d     +LDD R23 , Y + 18 + 3
                 	__GETD1S 18
001b76 9508      	RET
                 
                 ;OPTIMIZER ADDED SUBROUTINE, CALLED 3 TIMES, CODE SIZE REDUCTION:1 WORDS
                 SUBOPT_0x3F:
001b77 940e 1e5c 	CALL __SWAPD12
001b79 940e 1d4e 	CALL __SUBD12
001b7b 9508      	RET
                 
                 ;OPTIMIZER ADDED SUBROUTINE, CALLED 2 TIMES, CODE SIZE REDUCTION:1 WORDS
                 SUBOPT_0x40:
001b7c 940e 1e25 	CALL __GETD1P
                +
001b7e 83ea     +STD Y + 2 , R30
001b7f 83fb     +STD Y + 2 + 1 , R31
001b80 836c     +STD Y + 2 + 2 , R22
001b81 837d     +STD Y + 2 + 3 , R23
                 	__PUTD1S 2
001b82 9508      	RET
                 
                 ;OPTIMIZER ADDED SUBROUTINE, CALLED 8 TIMES, CODE SIZE REDUCTION:11 WORDS
                 SUBOPT_0x41:
                +
001b83 81aa     +LDD R26 , Y + 2
001b84 81bb     +LDD R27 , Y + 2 + 1
001b85 818c     +LDD R24 , Y + 2 + 2
001b86 819d     +LDD R25 , Y + 2 + 3
                 	__GETD2S 2
001b87 9508      	RET
                 
                 ;OPTIMIZER ADDED SUBROUTINE, CALLED 15 TIMES, CODE SIZE REDUCTION:25 WORDS
                 SUBOPT_0x42:
001b88 85a8      	LDD  R26,Y+8
001b89 85b9      	LDD  R27,Y+8+1
001b8a 940e 1e21 	CALL __GETW1P
001b8c 9508      	RET
                 
                 ;OPTIMIZER ADDED SUBROUTINE, CALLED 2 TIMES, CODE SIZE REDUCTION:3 WORDS
                 SUBOPT_0x43:
001b8d 967e      	ADIW R30,30
001b8e 01df      	MOVW R26,R30
001b8f 940e 1e25 	CALL __GETD1P
001b91 dff1      	RCALL SUBOPT_0x41
001b92 940e 1e78 	CALL __CPD21
001b94 9508      	RET
                 
                 ;OPTIMIZER ADDED SUBROUTINE, CALLED 3 TIMES, CODE SIZE REDUCTION:5 WORDS
                 SUBOPT_0x44:
                +
001b95 81ea     +LDD R30 , Y + 2
001b96 81fb     +LDD R31 , Y + 2 + 1
001b97 816c     +LDD R22 , Y + 2 + 2
001b98 817d     +LDD R23 , Y + 2 + 3
                 	__GETD1S 2
001b99 940e 1e69 	CALL __CPD10
001b9b 9508      	RET
                 
                 ;OPTIMIZER ADDED SUBROUTINE, CALLED 2 TIMES, CODE SIZE REDUCTION:7 WORDS
                 SUBOPT_0x45:
                +
001b9c 81ea     +LDD R30 , Y + 2
001b9d 81fb     +LDD R31 , Y + 2 + 1
001b9e 816c     +LDD R22 , Y + 2 + 2
001b9f 817d     +LDD R23 , Y + 2 + 3
                 	__GETD1S 2
                +
001ba0 85a8     +LDD R26 , Y + 8
001ba1 85b9     +LDD R27 , Y + 8 + 1
001ba2 961a     +ADIW R26 , 10
001ba3 940e 1e30+CALL __PUTDP1
                 	__PUTD1SNS 8,10
001ba5 cfe2      	RJMP SUBOPT_0x42
                 
                 ;OPTIMIZER ADDED SUBROUTINE, CALLED 3 TIMES, CODE SIZE REDUCTION:1 WORDS
                 SUBOPT_0x46:
                +
001ba6 83ea     +STD Y + 2 , R30
001ba7 83fb     +STD Y + 2 + 1 , R31
001ba8 836c     +STD Y + 2 + 2 , R22
001ba9 837d     +STD Y + 2 + 3 , R23
                 	__PUTD1S 2
001baa 9508      	RET
                 
                 ;OPTIMIZER ADDED SUBROUTINE, CALLED 6 TIMES, CODE SIZE REDUCTION:7 WORDS
                 SUBOPT_0x47:
001bab 2766      	CLR  R22
001bac 2777      	CLR  R23
001bad 940e 1d44 	CALL __ADDD12
001baf 9508      	RET
                 
                 ;OPTIMIZER ADDED SUBROUTINE, CALLED 2 TIMES, CODE SIZE REDUCTION:2 WORDS
                 SUBOPT_0x48:
001bb0 70ef      	ANDI R30,LOW(0xF)
001bb1 70f0      	ANDI R31,HIGH(0xF)
001bb2 0fee      	LSL  R30
001bb3 940e 1d81 	CALL __LSLW4
001bb5 0fea      	ADD  R30,R26
001bb6 1ffb      	ADC  R31,R27
001bb7 9508      	RET
                 
                 ;OPTIMIZER ADDED SUBROUTINE, CALLED 4 TIMES, CODE SIZE REDUCTION:3 WORDS
                 SUBOPT_0x49:
001bb8 940e 1e25 	CALL __GETD1P
001bba 940e 1e69 	CALL __CPD10
001bbc 9508      	RET
                 
                 ;OPTIMIZER ADDED SUBROUTINE, CALLED 15 TIMES, CODE SIZE REDUCTION:25 WORDS
                 SUBOPT_0x4A:
001bbd 85a9      	LDD  R26,Y+9
001bbe 85ba      	LDD  R27,Y+9+1
001bbf 940e 1e21 	CALL __GETW1P
001bc1 9508      	RET
                 
                 ;OPTIMIZER ADDED SUBROUTINE, CALLED 2 TIMES, CODE SIZE REDUCTION:3 WORDS
                 SUBOPT_0x4B:
001bc2 93fa      	ST   -Y,R31
001bc3 93ea      	ST   -Y,R30
001bc4 85eb      	LDD  R30,Y+11
001bc5 85fc      	LDD  R31,Y+11+1
                +
001bc6 85a2     +LDD R26 , Z + 10
001bc7 85b3     +LDD R27 , Z + 10 + 1
001bc8 8584     +LDD R24 , Z + 10 + 2
001bc9 8595     +LDD R25 , Z + 10 + 3
                 	__GETD2Z 10
001bca 9508      	RET
                 
                 ;OPTIMIZER ADDED SUBROUTINE, CALLED 3 TIMES, CODE SIZE REDUCTION:1 WORDS
                 SUBOPT_0x4C:
001bcb df6e      	RCALL SUBOPT_0x33
001bcc cf8d      	RJMP SUBOPT_0x39
                 
                 ;OPTIMIZER ADDED SUBROUTINE, CALLED 2 TIMES, CODE SIZE REDUCTION:2 WORDS
                 SUBOPT_0x4D:
001bcd 93fa      	ST   -Y,R31
001bce 93ea      	ST   -Y,R30
001bcf de56      	RCALL SUBOPT_0x10
001bd0 940e 098e 	CALL _move_window_G101
001bd2 30e0      	CPI  R30,0
001bd3 9508      	RET
                 
                 ;OPTIMIZER ADDED SUBROUTINE, CALLED 2 TIMES, CODE SIZE REDUCTION:3 WORDS
                 SUBOPT_0x4E:
001bd4 93fa      	ST   -Y,R31
001bd5 93ea      	ST   -Y,R30
                +
001bd6 81ae     +LDD R26 , Y + 6
001bd7 81bf     +LDD R27 , Y + 6 + 1
001bd8 8588     +LDD R24 , Y + 6 + 2
001bd9 8599     +LDD R25 , Y + 6 + 3
                 	__GETD2S 6
001bda 940c 0c97 	JMP  _clust2sect
                 
                 ;OPTIMIZER ADDED SUBROUTINE, CALLED 4 TIMES, CODE SIZE REDUCTION:3 WORDS
                 SUBOPT_0x4F:
001bdc 93ba      	ST   -Y,R27
001bdd 93aa      	ST   -Y,R26
001bde 940e 1e7f 	CALL __SAVELOCR4
001be0 9508      	RET
                 
                 ;OPTIMIZER ADDED SUBROUTINE, CALLED 4 TIMES, CODE SIZE REDUCTION:6 WORDS
                 SUBOPT_0x50:
001be1 81ec      	LDD  R30,Y+4
001be2 81fd      	LDD  R31,Y+4+1
001be3 93fa      	ST   -Y,R31
001be4 93ea      	ST   -Y,R30
001be5 e0a0      	LDI  R26,LOW(0)
001be6 9508      	RET
                 
                 ;OPTIMIZER ADDED SUBROUTINE, CALLED 3 TIMES, CODE SIZE REDUCTION:3 WORDS
                 SUBOPT_0x51:
001be7 e0b0      	LDI  R27,0
001be8 940e 0ccf 	CALL _dir_seek_G101
001bea 2f1e      	MOV  R17,R30
001beb 3010      	CPI  R17,0
001bec 9508      	RET
                 
                 ;OPTIMIZER ADDED SUBROUTINE, CALLED 4 TIMES, CODE SIZE REDUCTION:33 WORDS
                 SUBOPT_0x52:
001bed 81ac      	LDD  R26,Y+4
001bee 81bd      	LDD  R27,Y+4+1
001bef 940e 1e21 	CALL __GETW1P
001bf1 93fa      	ST   -Y,R31
001bf2 93ea      	ST   -Y,R30
001bf3 81ee      	LDD  R30,Y+6
001bf4 81ff      	LDD  R31,Y+6+1
                +
001bf5 85a6     +LDD R26 , Z + 14
001bf6 85b7     +LDD R27 , Z + 14 + 1
001bf7 8980     +LDD R24 , Z + 14 + 2
001bf8 8991     +LDD R25 , Z + 14 + 3
                 	__GETD2Z 14
001bf9 ce31      	RJMP SUBOPT_0x11
                 
                 ;OPTIMIZER ADDED SUBROUTINE, CALLED 2 TIMES, CODE SIZE REDUCTION:3 WORDS
                 SUBOPT_0x53:
001bfa 81ac      	LDD  R26,Y+4
001bfb 81bd      	LDD  R27,Y+4+1
001bfc 9652      	ADIW R26,18
001bfd 912d      	LD   R18,X+
001bfe 913c      	LD   R19,X
001bff 01d9      	MOVW R26,R18
001c00 910c      	LD   R16,X
001c01 3000      	CPI  R16,0
001c02 9508      	RET
                 
                 ;OPTIMIZER ADDED SUBROUTINE, CALLED 2 TIMES, CODE SIZE REDUCTION:5 WORDS
                 SUBOPT_0x54:
001c03 933a      	ST   -Y,R19
001c04 932a      	ST   -Y,R18
001c05 81ee      	LDD  R30,Y+6
001c06 81ff      	LDD  R31,Y+6+1
001c07 89a4      	LDD  R26,Z+20
001c08 89b5      	LDD  R27,Z+21
001c09 93ba      	ST   -Y,R27
001c0a 93aa      	ST   -Y,R26
001c0b e0ab      	LDI  R26,LOW(11)
001c0c e0b0      	LDI  R27,0
001c0d 9508      	RET
                 
                 ;OPTIMIZER ADDED SUBROUTINE, CALLED 5 TIMES, CODE SIZE REDUCTION:5 WORDS
                 SUBOPT_0x55:
001c0e df5a      	RCALL SUBOPT_0x3C
001c0f 940e 1e30 	CALL __PUTDP1
001c11 9508      	RET
                 
                 ;OPTIMIZER ADDED SUBROUTINE, CALLED 6 TIMES, CODE SIZE REDUCTION:7 WORDS
                 SUBOPT_0x56:
001c12 940e 1e21 	CALL __GETW1P
001c14 93fa      	ST   -Y,R31
001c15 93ea      	ST   -Y,R30
001c16 9508      	RET
                 
                 ;OPTIMIZER ADDED SUBROUTINE, CALLED 4 TIMES, CODE SIZE REDUCTION:3 WORDS
                 SUBOPT_0x57:
001c17 940e 1e21 	CALL __GETW1P
001c19 83ee      	STD  Y+6,R30
001c1a 83ff      	STD  Y+6+1,R31
001c1b 9508      	RET
                 
                 ;OPTIMIZER ADDED SUBROUTINE, CALLED 3 TIMES, CODE SIZE REDUCTION:1 WORDS
                 SUBOPT_0x58:
001c1c 85e8      	LDD  R30,Y+8
001c1d 85f9      	LDD  R31,Y+8+1
001c1e 81ae      	LDD  R26,Y+6
001c1f 81bf      	LDD  R27,Y+6+1
001c20 9508      	RET
                 
                 ;OPTIMIZER ADDED SUBROUTINE, CALLED 2 TIMES, CODE SIZE REDUCTION:6 WORDS
                 SUBOPT_0x59:
001c21 85e8      	LDD  R30,Y+8
001c22 85f9      	LDD  R31,Y+8+1
001c23 9631      	ADIW R30,1
001c24 87e8      	STD  Y+8,R30
001c25 87f9      	STD  Y+8+1,R31
001c26 9731      	SBIW R30,1
001c27 81ae      	LDD  R26,Y+6
001c28 81bf      	LDD  R27,Y+6+1
001c29 0fae      	ADD  R26,R30
001c2a 1fbf      	ADC  R27,R31
001c2b 910c      	LD   R16,X
001c2c 9508      	RET
                 
                 ;OPTIMIZER ADDED SUBROUTINE, CALLED 3 TIMES, CODE SIZE REDUCTION:5 WORDS
                 SUBOPT_0x5A:
001c2d 2fe2      	MOV  R30,R18
001c2e 5f2f      	SUBI R18,-1
001c2f e0f0      	LDI  R31,0
001c30 0fe4      	ADD  R30,R20
001c31 1ff5      	ADC  R31,R21
001c32 8300      	ST   Z,R16
001c33 9508      	RET
                 
                 ;OPTIMIZER ADDED SUBROUTINE, CALLED 2 TIMES, CODE SIZE REDUCTION:2 WORDS
                 SUBOPT_0x5B:
001c34 0fea      	ADD  R30,R26
001c35 1ffb      	ADC  R31,R27
001c36 85ab      	LDD  R26,Y+11
001c37 85bc      	LDD  R27,Y+11+1
001c38 93ed      	ST   X+,R30
001c39 93fc      	ST   X,R31
001c3a 3201      	CPI  R16,33
001c3b 9508      	RET
                 
                 ;OPTIMIZER ADDED SUBROUTINE, CALLED 2 TIMES, CODE SIZE REDUCTION:1 WORDS
                 SUBOPT_0x5C:
                +
001c3c 81ae     +LDD R26 , Y + 6
001c3d 81bf     +LDD R27 , Y + 6 + 1
001c3e 9616     +ADIW R26 , 6
001c3f 940e 1e30+CALL __PUTDP1
                 	__PUTD1SNS 6,6
001c41 9508      	RET
                 
                 ;OPTIMIZER ADDED SUBROUTINE, CALLED 4 TIMES, CODE SIZE REDUCTION:3 WORDS
                 SUBOPT_0x5D:
001c42 81ee      	LDD  R30,Y+6
001c43 81ff      	LDD  R31,Y+6+1
001c44 93fa      	ST   -Y,R31
001c45 93ea      	ST   -Y,R30
001c46 9508      	RET
                 
                 ;OPTIMIZER ADDED SUBROUTINE, CALLED 5 TIMES, CODE SIZE REDUCTION:5 WORDS
                 SUBOPT_0x5E:
001c47 e0e0      	LDI  R30,LOW(0)
001c48 e0f0      	LDI  R31,HIGH(0)
001c49 93ed      	ST   X+,R30
001c4a 93fc      	ST   X,R31
001c4b 9508      	RET
                 
                 ;OPTIMIZER ADDED SUBROUTINE, CALLED 4 TIMES, CODE SIZE REDUCTION:3 WORDS
                 SUBOPT_0x5F:
001c4c 01d9      	MOVW R26,R18
001c4d 9654      	ADIW R26,20
001c4e ce5c      	RJMP SUBOPT_0x20
                 
                 ;OPTIMIZER ADDED SUBROUTINE, CALLED 4 TIMES, CODE SIZE REDUCTION:3 WORDS
                 SUBOPT_0x60:
001c4f 01d9      	MOVW R26,R18
001c50 965a      	ADIW R26,26
001c51 940e 1e21 	CALL __GETW1P
001c53 9508      	RET
                 
                 ;OPTIMIZER ADDED SUBROUTINE, CALLED 4 TIMES, CODE SIZE REDUCTION:3 WORDS
                 SUBOPT_0x61:
001c54 2766      	CLR  R22
001c55 2777      	CLR  R23
001c56 940e 1d58 	CALL __ORD12
001c58 9508      	RET
                 
                 ;OPTIMIZER ADDED SUBROUTINE, CALLED 2 TIMES, CODE SIZE REDUCTION:4 WORDS
                 SUBOPT_0x62:
001c59 96f2      	ADIW R30,50
001c5a 50e2      	SUBI R30,LOW(-510)
001c5b 4ffe      	SBCI R31,HIGH(-510)
001c5c 01df      	MOVW R26,R30
001c5d 940e 1e21 	CALL __GETW1P
001c5f 35e5      	CPI  R30,LOW(0xAA55)
001c60 eaaa      	LDI  R26,HIGH(0xAA55)
001c61 07fa      	CPC  R31,R26
001c62 9508      	RET
                 
                 ;OPTIMIZER ADDED SUBROUTINE, CALLED 2 TIMES, CODE SIZE REDUCTION:8 WORDS
                 SUBOPT_0x63:
001c63 940e 1e25 	CALL __GETD1P
                +
001c65 7fef     +ANDI R30 , LOW ( 0xFFFFFF )
001c66 7fff     +ANDI R31 , HIGH ( 0xFFFFFF )
001c67 7f6f     +ANDI R22 , BYTE3 ( 0xFFFFFF )
001c68 7070     +ANDI R23 , BYTE4 ( 0xFFFFFF )
                 	__ANDD1N 0xFFFFFF
                +
001c69 34e6     +CPI R30 , LOW ( 0x544146 )
001c6a e4a1     +LDI R26 , HIGH ( 0x544146 )
001c6b 07fa     +CPC R31 , R26
001c6c e5a4     +LDI R26 , BYTE3 ( 0x544146 )
001c6d 076a     +CPC R22 , R26
001c6e e0a0     +LDI R26 , BYTE4 ( 0x544146 )
001c6f 077a     +CPC R23 , R26
                 	__CPD1N 0x544146
001c70 9508      	RET
                 
                 ;OPTIMIZER ADDED SUBROUTINE, CALLED 2 TIMES, CODE SIZE REDUCTION:2 WORDS
                 SUBOPT_0x64:
001c71 edaa      	LDI  R26,LOW(_FatFs_G101)
001c72 e0ba      	LDI  R27,HIGH(_FatFs_G101)
001c73 e0f0      	LDI  R31,0
001c74 0fee      	LSL  R30
001c75 1fff      	ROL  R31
001c76 0fae      	ADD  R26,R30
001c77 1fbf      	ADC  R27,R31
001c78 9508      	RET
                 
                 ;OPTIMIZER ADDED SUBROUTINE, CALLED 3 TIMES, CODE SIZE REDUCTION:1 WORDS
                 SUBOPT_0x65:
                +
001c79 8bea     +STD Y + 18 , R30
001c7a 8bfb     +STD Y + 18 + 1 , R31
001c7b 8b6c     +STD Y + 18 + 2 , R22
001c7c 8b7d     +STD Y + 18 + 3 , R23
                 	__PUTD1S 18
001c7d 9508      	RET
                 
                 ;OPTIMIZER ADDED SUBROUTINE, CALLED 2 TIMES, CODE SIZE REDUCTION:1 WORDS
                 SUBOPT_0x66:
001c7e 81ae      	LDD  R26,Y+6
001c7f 81bf      	LDD  R27,Y+6+1
001c80 5ca0      	SUBI R26,LOW(-64)
001c81 4fbf      	SBCI R27,HIGH(-64)
001c82 940e 1e21 	CALL __GETW1P
001c84 9508      	RET
                 
                 ;OPTIMIZER ADDED SUBROUTINE, CALLED 2 TIMES, CODE SIZE REDUCTION:1 WORDS
                 SUBOPT_0x67:
                +
001c85 89ae     +LDD R26 , Y + 22
001c86 89bf     +LDD R27 , Y + 22 + 1
001c87 8d88     +LDD R24 , Y + 22 + 2
001c88 8d99     +LDD R25 , Y + 22 + 3
                 	__GETD2S 22
001c89 cf21      	RJMP SUBOPT_0x47
                 
                 ;OPTIMIZER ADDED SUBROUTINE, CALLED 2 TIMES, CODE SIZE REDUCTION:2 WORDS
                 SUBOPT_0x68:
001c8a 81ee      	LDD  R30,Y+6
001c8b 81ff      	LDD  R31,Y+6+1
001c8c 85a0      	LDD  R26,Z+8
001c8d 85b1      	LDD  R27,Z+9
001c8e 01fd      	MOVW R30,R26
001c8f 940e 1d8a 	CALL __LSRW4
001c91 9508      	RET
                 
                 ;OPTIMIZER ADDED SUBROUTINE, CALLED 2 TIMES, CODE SIZE REDUCTION:3 WORDS
                 SUBOPT_0x69:
001c92 81ee      	LDD  R30,Y+6
001c93 81ff      	LDD  R31,Y+6+1
001c94 dd78      	RCALL SUBOPT_0xC
001c95 dedc      	RCALL SUBOPT_0x3E
001c96 940e 1d44 	CALL __ADDD12
001c98 9508      	RET
                 
                 ;OPTIMIZER ADDED SUBROUTINE, CALLED 2 TIMES, CODE SIZE REDUCTION:1 WORDS
                 SUBOPT_0x6A:
001c99 93fa      	ST   -Y,R31
001c9a 93ea      	ST   -Y,R30
                +
001c9b 81ae     +LDD R26 , Y + 6
001c9c 81bf     +LDD R27 , Y + 6 + 1
001c9d 8588     +LDD R24 , Y + 6 + 2
001c9e 8599     +LDD R25 , Y + 6 + 3
                 	__GETD2S 6
001c9f 9508      	RET
                 
                 ;OPTIMIZER ADDED SUBROUTINE, CALLED 4 TIMES, CODE SIZE REDUCTION:3 WORDS
                 SUBOPT_0x6B:
001ca0 89ae      	LDD  R26,Y+22
001ca1 89bf      	LDD  R27,Y+22+1
001ca2 cf6f      	RJMP SUBOPT_0x56
                 
                 ;OPTIMIZER ADDED SUBROUTINE, CALLED 2 TIMES, CODE SIZE REDUCTION:1 WORDS
                 SUBOPT_0x6C:
001ca3 81a2      	LDD  R26,Z+2
001ca4 81b3      	LDD  R27,Z+3
001ca5 940e 126e 	CALL _validate_G101
001ca7 2f1e      	MOV  R17,R30
001ca8 3010      	CPI  R17,0
001ca9 9508      	RET
                 
                 ;OPTIMIZER ADDED SUBROUTINE, CALLED 3 TIMES, CODE SIZE REDUCTION:3 WORDS
                 SUBOPT_0x6D:
001caa 89ae      	LDD  R26,Y+22
001cab 89bf      	LDD  R27,Y+22+1
001cac 961a      	ADIW R26,10
001cad 940e 1e25 	CALL __GETD1P
001caf 9508      	RET
                 
                 ;OPTIMIZER ADDED SUBROUTINE, CALLED 3 TIMES, CODE SIZE REDUCTION:5 WORDS
                 SUBOPT_0x6E:
001cb0 89ee      	LDD  R30,Y+22
001cb1 89ff      	LDD  R31,Y+22+1
                +
001cb2 81a6     +LDD R26 , Z + 6
001cb3 81b7     +LDD R27 , Z + 6 + 1
001cb4 8580     +LDD R24 , Z + 6 + 2
001cb5 8591     +LDD R25 , Z + 6 + 3
                 	__GETD2Z 6
001cb6 9508      	RET
                 
                 ;OPTIMIZER ADDED SUBROUTINE, CALLED 6 TIMES, CODE SIZE REDUCTION:7 WORDS
                 SUBOPT_0x6F:
001cb7 89ae      	LDD  R26,Y+22
001cb8 89bf      	LDD  R27,Y+22+1
001cb9 940e 1e21 	CALL __GETW1P
001cbb 9508      	RET
                 
                 ;OPTIMIZER ADDED SUBROUTINE, CALLED 3 TIMES, CODE SIZE REDUCTION:1 WORDS
                 SUBOPT_0x70:
                +
001cbc 87ec     +STD Y + 12 , R30
001cbd 87fd     +STD Y + 12 + 1 , R31
001cbe 876e     +STD Y + 12 + 2 , R22
001cbf 877f     +STD Y + 12 + 3 , R23
                 	__PUTD1S 12
001cc0 9508      	RET
                 
                 ;OPTIMIZER ADDED SUBROUTINE, CALLED 2 TIMES, CODE SIZE REDUCTION:1 WORDS
                 SUBOPT_0x71:
001cc1 8de8      	LDD  R30,Y+24
001cc2 8df9      	LDD  R31,Y+24+1
                +
001cc3 89a2     +LDD R26 , Z + 18
001cc4 89b3     +LDD R27 , Z + 18 + 1
001cc5 8984     +LDD R24 , Z + 18 + 2
001cc6 8995     +LDD R25 , Z + 18 + 3
                 	__GETD2Z 18
001cc7 9508      	RET
                 
                 ;OPTIMIZER ADDED SUBROUTINE, CALLED 6 TIMES, CODE SIZE REDUCTION:17 WORDS
                 SUBOPT_0x72:
001cc8 89ae      	LDD  R26,Y+22
001cc9 89bf      	LDD  R27,Y+22+1
001cca 9614      	ADIW R26,4
001ccb 91ec      	LD   R30,X
001ccc 68e0      	ORI  R30,0x80
001ccd 93ec      	ST   X,R30
001cce 9508      	RET
                 
                 ;OPTIMIZER ADDED SUBROUTINE, CALLED 2 TIMES, CODE SIZE REDUCTION:2 WORDS
                 SUBOPT_0x73:
001ccf 81e1      	LDD  R30,Z+1
001cd0 93ea      	ST   -Y,R30
001cd1 89ef      	LDD  R30,Y+23
001cd2 8df8      	LDD  R31,Y+23+1
001cd3 96b0      	ADIW R30,32
001cd4 93fa      	ST   -Y,R31
001cd5 93ea      	ST   -Y,R30
001cd6 9508      	RET
                 
                 ;OPTIMIZER ADDED SUBROUTINE, CALLED 5 TIMES, CODE SIZE REDUCTION:5 WORDS
                 SUBOPT_0x74:
                +
001cd7 89a6     +LDD R26 , Z + 22
001cd8 89b7     +LDD R27 , Z + 22 + 1
001cd9 8d80     +LDD R24 , Z + 22 + 2
001cda 8d91     +LDD R25 , Z + 22 + 3
                 	__GETD2Z 22
001cdb 9508      	RET
                 
                 ;OPTIMIZER ADDED SUBROUTINE, CALLED 2 TIMES, CODE SIZE REDUCTION:1 WORDS
                 SUBOPT_0x75:
001cdc 940e 1e57 	CALL __PUTPARD2
001cde e0a1      	LDI  R26,LOW(1)
001cdf 940e 06db 	CALL _disk_write
001ce1 30e0      	CPI  R30,0
001ce2 9508      	RET
                 
                 ;OPTIMIZER ADDED SUBROUTINE, CALLED 2 TIMES, CODE SIZE REDUCTION:1 WORDS
                 SUBOPT_0x76:
001ce3 89ae      	LDD  R26,Y+22
001ce4 89bf      	LDD  R27,Y+22+1
001ce5 9614      	ADIW R26,4
001ce6 91ec      	LD   R30,X
001ce7 7bef      	ANDI R30,0xBF
001ce8 93ec      	ST   X,R30
001ce9 9508      	RET
                 
                 ;OPTIMIZER ADDED SUBROUTINE, CALLED 3 TIMES, CODE SIZE REDUCTION:1 WORDS
                 SUBOPT_0x77:
001cea 89ee      	LDD  R30,Y+22
001ceb 89ff      	LDD  R31,Y+22+1
001cec 81e5      	LDD  R30,Z+5
001ced e0f0      	LDI  R31,0
001cee 9508      	RET
                 
                 ;OPTIMIZER ADDED SUBROUTINE, CALLED 2 TIMES, CODE SIZE REDUCTION:1 WORDS
                 SUBOPT_0x78:
001cef 89ee      	LDD  R30,Y+22
001cf0 89ff      	LDD  R31,Y+22+1
001cf1 dfe5      	RCALL SUBOPT_0x74
001cf2 cd1f      	RJMP SUBOPT_0xD
                 
                 ;OPTIMIZER ADDED SUBROUTINE, CALLED 2 TIMES, CODE SIZE REDUCTION:1 WORDS
                 SUBOPT_0x79:
001cf3 89ae      	LDD  R26,Y+22
001cf4 89bf      	LDD  R27,Y+22+1
001cf5 9616      	ADIW R26,6
001cf6 940e 1e21 	CALL __GETW1P
001cf8 70f1      	ANDI R31,HIGH(0x1FF)
001cf9 9508      	RET
                 
                 ;OPTIMIZER ADDED SUBROUTINE, CALLED 2 TIMES, CODE SIZE REDUCTION:1 WORDS
                 SUBOPT_0x7A:
001cfa 93fa      	ST   -Y,R31
001cfb 93ea      	ST   -Y,R30
001cfc 01fe      	MOVW R30,R28
001cfd 96bc      	ADIW R30,44
001cfe 93fa      	ST   -Y,R31
001cff 93ea      	ST   -Y,R30
001d00 9508      	RET
                 
                 ;OPTIMIZER ADDED SUBROUTINE, CALLED 5 TIMES, CODE SIZE REDUCTION:13 WORDS
                 SUBOPT_0x7B:
001d01 932a      	ST   -Y,R18
001d02 85ad      	LDD  R26,Y+13
001d03 85be      	LDD  R27,Y+13+1
001d04 85ef      	LDD  R30,Y+15
001d05 89f8      	LDD  R31,Y+15+1
001d06 9509      	ICALL
001d07 9508      	RET
                 
                 ;OPTIMIZER ADDED SUBROUTINE, CALLED 5 TIMES, CODE SIZE REDUCTION:9 WORDS
                 SUBOPT_0x7C:
001d08 89e8      	LDD  R30,Y+16
001d09 89f9      	LDD  R31,Y+16+1
001d0a 9734      	SBIW R30,4
001d0b 8be8      	STD  Y+16,R30
001d0c 8bf9      	STD  Y+16+1,R31
001d0d 9508      	RET
                 
                 ;OPTIMIZER ADDED SUBROUTINE, CALLED 3 TIMES, CODE SIZE REDUCTION:3 WORDS
                 SUBOPT_0x7D:
001d0e 85ad      	LDD  R26,Y+13
001d0f 85be      	LDD  R27,Y+13+1
001d10 85ef      	LDD  R30,Y+15
001d11 89f8      	LDD  R31,Y+15+1
001d12 9509      	ICALL
001d13 9508      	RET
                 
                 ;OPTIMIZER ADDED SUBROUTINE, CALLED 2 TIMES, CODE SIZE REDUCTION:2 WORDS
                 SUBOPT_0x7E:
001d14 89a8      	LDD  R26,Y+16
001d15 89b9      	LDD  R27,Y+16+1
001d16 9614      	ADIW R26,4
001d17 940e 1e21 	CALL __GETW1P
001d19 87ea      	STD  Y+10,R30
001d1a 87fb      	STD  Y+10+1,R31
001d1b 9508      	RET
                 
                 ;OPTIMIZER ADDED SUBROUTINE, CALLED 2 TIMES, CODE SIZE REDUCTION:1 WORDS
                 SUBOPT_0x7F:
001d1c 940e 187a 	CALL __lcd_write_data
001d1e e0a3      	LDI  R26,LOW(3)
001d1f e0b0      	LDI  R27,0
001d20 940c 1d36 	JMP  _delay_ms
                 
                 ;OPTIMIZER ADDED SUBROUTINE, CALLED 3 TIMES, CODE SIZE REDUCTION:7 WORDS
                 SUBOPT_0x80:
001d22 e3a0      	LDI  R26,LOW(48)
001d23 940e 1866 	CALL __lcd_write_nibble_G103
                +
001d25 ec88     +LDI R24 , LOW ( 200 )
001d26 e090     +LDI R25 , HIGH ( 200 )
                +__DELAY_USW_LOOP :
001d27 9701     +SBIW R24 , 1
001d28 f7f1     +BRNE __DELAY_USW_LOOP
                 	__DELAY_USW 200
001d29 9508      	RET
                 
                 ;OPTIMIZER ADDED SUBROUTINE, CALLED 2 TIMES, CODE SIZE REDUCTION:1 WORDS
                 SUBOPT_0x81:
001d2a 81ae      	LDD  R26,Y+6
001d2b 81bf      	LDD  R27,Y+6+1
001d2c 9611      	ADIW R26,1
001d2d 83ae      	STD  Y+6,R26
001d2e 83bf      	STD  Y+6+1,R27
001d2f 9711      	SBIW R26,1
001d30 9508      	RET
                 
                 ;OPTIMIZER ADDED SUBROUTINE, CALLED 2 TIMES, CODE SIZE REDUCTION:1 WORDS
                 SUBOPT_0x82:
                +
001d31 81ea     +LDD R30 , Y + 2
001d32 81fb     +LDD R31 , Y + 2 + 1
001d33 816c     +LDD R22 , Y + 2 + 2
001d34 817d     +LDD R23 , Y + 2 + 3
                 	__GETD1S 2
001d35 cd21      	RJMP SUBOPT_0x17
                 
                 
                 	.CSEG
                 _delay_ms:
001d36 9610      	adiw r26,0
001d37 f039      	breq __delay_ms1
                 __delay_ms0:
                +
001d38 ed80     +LDI R24 , LOW ( 0x7D0 )
001d39 e097     +LDI R25 , HIGH ( 0x7D0 )
                +__DELAY_USW_LOOP :
001d3a 9701     +SBIW R24 , 1
001d3b f7f1     +BRNE __DELAY_USW_LOOP
                 	__DELAY_USW 0x7D0
001d3c 95a8      	wdr
001d3d 9711      	sbiw r26,1
001d3e f7c9      	brne __delay_ms0
                 __delay_ms1:
001d3f 9508      	ret
                 
                 __ADDW2R15:
001d40 2400      	CLR  R0
001d41 0daf      	ADD  R26,R15
001d42 1db0      	ADC  R27,R0
001d43 9508      	RET
                 
                 __ADDD12:
001d44 0fea      	ADD  R30,R26
001d45 1ffb      	ADC  R31,R27
001d46 1f68      	ADC  R22,R24
001d47 1f79      	ADC  R23,R25
001d48 9508      	RET
                 
                 __ADDD21:
001d49 0fae      	ADD  R26,R30
001d4a 1fbf      	ADC  R27,R31
001d4b 1f86      	ADC  R24,R22
001d4c 1f97      	ADC  R25,R23
001d4d 9508      	RET
                 
                 __SUBD12:
001d4e 1bea      	SUB  R30,R26
001d4f 0bfb      	SBC  R31,R27
001d50 0b68      	SBC  R22,R24
001d51 0b79      	SBC  R23,R25
001d52 9508      	RET
                 
                 __SUBD21:
001d53 1bae      	SUB  R26,R30
001d54 0bbf      	SBC  R27,R31
001d55 0b86      	SBC  R24,R22
001d56 0b97      	SBC  R25,R23
001d57 9508      	RET
                 
                 __ORD12:
001d58 2bea      	OR   R30,R26
001d59 2bfb      	OR   R31,R27
001d5a 2b68      	OR   R22,R24
001d5b 2b79      	OR   R23,R25
001d5c 9508      	RET
                 
                 __ANEGW1:
001d5d 95f1      	NEG  R31
001d5e 95e1      	NEG  R30
001d5f 40f0      	SBCI R31,0
001d60 9508      	RET
                 
                 __ANEGD1:
001d61 95f0      	COM  R31
001d62 9560      	COM  R22
001d63 9570      	COM  R23
001d64 95e1      	NEG  R30
001d65 4fff      	SBCI R31,-1
001d66 4f6f      	SBCI R22,-1
001d67 4f7f      	SBCI R23,-1
001d68 9508      	RET
                 
                 __LSLD12:
001d69 23ee      	TST  R30
001d6a 2e0e      	MOV  R0,R30
001d6b 01fd      	MOVW R30,R26
001d6c 01bc      	MOVW R22,R24
001d6d f031      	BREQ __LSLD12R
                 __LSLD12L:
001d6e 0fee      	LSL  R30
001d6f 1fff      	ROL  R31
001d70 1f66      	ROL  R22
001d71 1f77      	ROL  R23
001d72 940a      	DEC  R0
001d73 f7d1      	BRNE __LSLD12L
                 __LSLD12R:
001d74 9508      	RET
                 
                 __LSRD12:
001d75 23ee      	TST  R30
001d76 2e0e      	MOV  R0,R30
001d77 01fd      	MOVW R30,R26
001d78 01bc      	MOVW R22,R24
001d79 f031      	BREQ __LSRD12R
                 __LSRD12L:
001d7a 9576      	LSR  R23
001d7b 9567      	ROR  R22
001d7c 95f7      	ROR  R31
001d7d 95e7      	ROR  R30
001d7e 940a      	DEC  R0
001d7f f7d1      	BRNE __LSRD12L
                 __LSRD12R:
001d80 9508      	RET
                 
                 __LSLW4:
001d81 0fee      	LSL  R30
001d82 1fff      	ROL  R31
                 __LSLW3:
001d83 0fee      	LSL  R30
001d84 1fff      	ROL  R31
                 __LSLW2:
001d85 0fee      	LSL  R30
001d86 1fff      	ROL  R31
001d87 0fee      	LSL  R30
001d88 1fff      	ROL  R31
001d89 9508      	RET
                 
                 __LSRW4:
001d8a 95f6      	LSR  R31
001d8b 95e7      	ROR  R30
                 __LSRW3:
001d8c 95f6      	LSR  R31
001d8d 95e7      	ROR  R30
                 __LSRW2:
001d8e 95f6      	LSR  R31
001d8f 95e7      	ROR  R30
001d90 95f6      	LSR  R31
001d91 95e7      	ROR  R30
001d92 9508      	RET
                 
                 __LSLD1:
001d93 0fee      	LSL  R30
001d94 1fff      	ROL  R31
001d95 1f66      	ROL  R22
001d96 1f77      	ROL  R23
001d97 9508      	RET
                 
                 __LSRD16:
001d98 2fe6      	MOV  R30,R22
001d99 2ff7      	MOV  R31,R23
001d9a e060      	LDI  R22,0
001d9b e070      	LDI  R23,0
001d9c 9508      	RET
                 
                 __LSLD16:
001d9d 2f6e      	MOV  R22,R30
001d9e 2f7f      	MOV  R23,R31
001d9f e0e0      	LDI  R30,0
001da0 e0f0      	LDI  R31,0
001da1 9508      	RET
                 
                 __CWD1:
001da2 2f6f      	MOV  R22,R31
001da3 0f66      	ADD  R22,R22
001da4 0b66      	SBC  R22,R22
001da5 2f76      	MOV  R23,R22
001da6 9508      	RET
                 
                 __MULD12U:
001da7 9f7a      	MUL  R23,R26
001da8 2d70      	MOV  R23,R0
001da9 9f6b      	MUL  R22,R27
001daa 0d70      	ADD  R23,R0
001dab 9ff8      	MUL  R31,R24
001dac 0d70      	ADD  R23,R0
001dad 9fe9      	MUL  R30,R25
001dae 0d70      	ADD  R23,R0
001daf 9f6a      	MUL  R22,R26
001db0 2d60      	MOV  R22,R0
001db1 0d71      	ADD  R23,R1
001db2 9ffb      	MUL  R31,R27
001db3 0d60      	ADD  R22,R0
001db4 1d71      	ADC  R23,R1
001db5 9fe8      	MUL  R30,R24
001db6 0d60      	ADD  R22,R0
001db7 1d71      	ADC  R23,R1
001db8 2788      	CLR  R24
001db9 9ffa      	MUL  R31,R26
001dba 2df0      	MOV  R31,R0
001dbb 0d61      	ADD  R22,R1
001dbc 1f78      	ADC  R23,R24
001dbd 9feb      	MUL  R30,R27
001dbe 0df0      	ADD  R31,R0
001dbf 1d61      	ADC  R22,R1
001dc0 1f78      	ADC  R23,R24
001dc1 9fea      	MUL  R30,R26
001dc2 2de0      	MOV  R30,R0
001dc3 0df1      	ADD  R31,R1
001dc4 1f68      	ADC  R22,R24
001dc5 1f78      	ADC  R23,R24
001dc6 9508      	RET
                 
                 __MULB1W2U:
001dc7 2f6e      	MOV  R22,R30
001dc8 9f6a      	MUL  R22,R26
001dc9 01f0      	MOVW R30,R0
001dca 9f6b      	MUL  R22,R27
001dcb 0df0      	ADD  R31,R0
001dcc 9508      	RET
                 
                 __DIVW21U:
001dcd 2400      	CLR  R0
001dce 2411      	CLR  R1
001dcf e190      	LDI  R25,16
                 __DIVW21U1:
001dd0 0faa      	LSL  R26
001dd1 1fbb      	ROL  R27
001dd2 1c00      	ROL  R0
001dd3 1c11      	ROL  R1
001dd4 1a0e      	SUB  R0,R30
001dd5 0a1f      	SBC  R1,R31
001dd6 f418      	BRCC __DIVW21U2
001dd7 0e0e      	ADD  R0,R30
001dd8 1e1f      	ADC  R1,R31
001dd9 c001      	RJMP __DIVW21U3
                 __DIVW21U2:
001dda 60a1      	SBR  R26,1
                 __DIVW21U3:
001ddb 959a      	DEC  R25
001ddc f799      	BRNE __DIVW21U1
001ddd 01fd      	MOVW R30,R26
001dde 01d0      	MOVW R26,R0
001ddf 9508      	RET
                 
                 __DIVD21U:
001de0 933f      	PUSH R19
001de1 934f      	PUSH R20
001de2 935f      	PUSH R21
001de3 2400      	CLR  R0
001de4 2411      	CLR  R1
001de5 2744      	CLR  R20
001de6 2755      	CLR  R21
001de7 e230      	LDI  R19,32
                 __DIVD21U1:
001de8 0faa      	LSL  R26
001de9 1fbb      	ROL  R27
001dea 1f88      	ROL  R24
001deb 1f99      	ROL  R25
001dec 1c00      	ROL  R0
001ded 1c11      	ROL  R1
001dee 1f44      	ROL  R20
001def 1f55      	ROL  R21
001df0 1a0e      	SUB  R0,R30
001df1 0a1f      	SBC  R1,R31
001df2 0b46      	SBC  R20,R22
001df3 0b57      	SBC  R21,R23
001df4 f428      	BRCC __DIVD21U2
001df5 0e0e      	ADD  R0,R30
001df6 1e1f      	ADC  R1,R31
001df7 1f46      	ADC  R20,R22
001df8 1f57      	ADC  R21,R23
001df9 c001      	RJMP __DIVD21U3
                 __DIVD21U2:
001dfa 60a1      	SBR  R26,1
                 __DIVD21U3:
001dfb 953a      	DEC  R19
001dfc f759      	BRNE __DIVD21U1
001dfd 01fd      	MOVW R30,R26
001dfe 01bc      	MOVW R22,R24
001dff 01d0      	MOVW R26,R0
001e00 01ca      	MOVW R24,R20
001e01 915f      	POP  R21
001e02 914f      	POP  R20
001e03 913f      	POP  R19
001e04 9508      	RET
                 
                 __DIVD21:
001e05 d008      	RCALL __CHKSIGND
001e06 dfd9      	RCALL __DIVD21U
001e07 f40e      	BRTC __DIVD211
001e08 df58      	RCALL __ANEGD1
                 __DIVD211:
001e09 9508      	RET
                 
                 __MODD21U:
001e0a dfd5      	RCALL __DIVD21U
001e0b 01fd      	MOVW R30,R26
001e0c 01bc      	MOVW R22,R24
001e0d 9508      	RET
                 
                 __CHKSIGND:
001e0e 94e8      	CLT
001e0f ff77      	SBRS R23,7
001e10 c002      	RJMP __CHKSD1
001e11 df4f      	RCALL __ANEGD1
001e12 9468      	SET
                 __CHKSD1:
001e13 ff97      	SBRS R25,7
001e14 c00b      	RJMP __CHKSD2
001e15 2400      	CLR  R0
001e16 95a0      	COM  R26
001e17 95b0      	COM  R27
001e18 9580      	COM  R24
001e19 9590      	COM  R25
001e1a 9611      	ADIW R26,1
001e1b 1d80      	ADC  R24,R0
001e1c 1d90      	ADC  R25,R0
001e1d f800      	BLD  R0,0
001e1e 9403      	INC  R0
001e1f fa00      	BST  R0,0
                 __CHKSD2:
001e20 9508      	RET
                 
                 __GETW1P:
001e21 91ed      	LD   R30,X+
001e22 91fc      	LD   R31,X
001e23 9711      	SBIW R26,1
001e24 9508      	RET
                 
                 __GETD1P:
001e25 91ed      	LD   R30,X+
001e26 91fd      	LD   R31,X+
001e27 916d      	LD   R22,X+
001e28 917c      	LD   R23,X
001e29 9713      	SBIW R26,3
001e2a 9508      	RET
                 
                 __GETD1P_INC:
001e2b 91ed      	LD   R30,X+
001e2c 91fd      	LD   R31,X+
001e2d 916d      	LD   R22,X+
001e2e 917d      	LD   R23,X+
001e2f 9508      	RET
                 
                 __PUTDP1:
001e30 93ed      	ST   X+,R30
001e31 93fd      	ST   X+,R31
001e32 936d      	ST   X+,R22
001e33 937c      	ST   X,R23
001e34 9508      	RET
                 
                 __PUTDP1_DEC:
001e35 937e      	ST   -X,R23
001e36 936e      	ST   -X,R22
001e37 93fe      	ST   -X,R31
001e38 93ee      	ST   -X,R30
001e39 9508      	RET
                 
                 __GETW1PF:
001e3a 9005      	LPM  R0,Z+
001e3b 91f4      	LPM  R31,Z
001e3c 2de0      	MOV  R30,R0
001e3d 9508      	RET
                 
                 __GETD1S0:
001e3e 81e8      	LD   R30,Y
001e3f 81f9      	LDD  R31,Y+1
001e40 816a      	LDD  R22,Y+2
001e41 817b      	LDD  R23,Y+3
001e42 9508      	RET
                 
                 __GETD2S0:
001e43 81a8      	LD   R26,Y
001e44 81b9      	LDD  R27,Y+1
001e45 818a      	LDD  R24,Y+2
001e46 819b      	LDD  R25,Y+3
001e47 9508      	RET
                 
                 __PUTD1S0:
001e48 83e8      	ST   Y,R30
001e49 83f9      	STD  Y+1,R31
001e4a 836a      	STD  Y+2,R22
001e4b 837b      	STD  Y+3,R23
001e4c 9508      	RET
                 
                 __PUTDZ20:
001e4d 83a0      	ST   Z,R26
001e4e 83b1      	STD  Z+1,R27
001e4f 8382      	STD  Z+2,R24
001e50 8393      	STD  Z+3,R25
001e51 9508      	RET
                 
                 __PUTPARD1:
001e52 937a      	ST   -Y,R23
001e53 936a      	ST   -Y,R22
001e54 93fa      	ST   -Y,R31
001e55 93ea      	ST   -Y,R30
001e56 9508      	RET
                 
                 __PUTPARD2:
001e57 939a      	ST   -Y,R25
001e58 938a      	ST   -Y,R24
001e59 93ba      	ST   -Y,R27
001e5a 93aa      	ST   -Y,R26
001e5b 9508      	RET
                 
                 __SWAPD12:
001e5c 2e18      	MOV  R1,R24
001e5d 2f86      	MOV  R24,R22
001e5e 2d61      	MOV  R22,R1
001e5f 2e19      	MOV  R1,R25
001e60 2f97      	MOV  R25,R23
001e61 2d71      	MOV  R23,R1
                 
                 __SWAPW12:
001e62 2e1b      	MOV  R1,R27
001e63 2fbf      	MOV  R27,R31
001e64 2df1      	MOV  R31,R1
                 
                 __SWAPB12:
001e65 2e1a      	MOV  R1,R26
001e66 2fae      	MOV  R26,R30
001e67 2de1      	MOV  R30,R1
001e68 9508      	RET
                 
                 __CPD10:
001e69 9730      	SBIW R30,0
001e6a 4060      	SBCI R22,0
001e6b 4070      	SBCI R23,0
001e6c 9508      	RET
                 
                 __CPD02:
001e6d 2400      	CLR  R0
001e6e 160a      	CP   R0,R26
001e6f 060b      	CPC  R0,R27
001e70 0608      	CPC  R0,R24
001e71 0609      	CPC  R0,R25
001e72 9508      	RET
                 
                 __CPD12:
001e73 17ea      	CP   R30,R26
001e74 07fb      	CPC  R31,R27
001e75 0768      	CPC  R22,R24
001e76 0779      	CPC  R23,R25
001e77 9508      	RET
                 
                 __CPD21:
001e78 17ae      	CP   R26,R30
001e79 07bf      	CPC  R27,R31
001e7a 0786      	CPC  R24,R22
001e7b 0797      	CPC  R25,R23
001e7c 9508      	RET
                 
                 __SAVELOCR6:
001e7d 935a      	ST   -Y,R21
                 __SAVELOCR5:
001e7e 934a      	ST   -Y,R20
                 __SAVELOCR4:
001e7f 933a      	ST   -Y,R19
                 __SAVELOCR3:
001e80 932a      	ST   -Y,R18
                 __SAVELOCR2:
001e81 931a      	ST   -Y,R17
001e82 930a      	ST   -Y,R16
001e83 9508      	RET
                 
                 __LOADLOCR6:
001e84 815d      	LDD  R21,Y+5
                 __LOADLOCR5:
001e85 814c      	LDD  R20,Y+4
                 __LOADLOCR4:
001e86 813b      	LDD  R19,Y+3
                 __LOADLOCR3:
001e87 812a      	LDD  R18,Y+2
                 __LOADLOCR2:
001e88 8119      	LDD  R17,Y+1
001e89 8108      	LD   R16,Y
001e8a 9508      	RET
                 
                 ;END OF CODE MARKER
                 __END_OF_CODE:


RESOURCE USE INFORMATION
------------------------

Notice:
The register and instruction counts are symbol table hit counts,
and hence implicitly used resources are not counted, eg, the
'lpm' instruction without operands implicitly uses r0 and z,
none of which are counted.

x,y,z are separate entities in the symbol table and are
counted separately from r26..r31 here.

.dseg memory usage only counts static data declared with .byte

ATmega128 register use summary:
r0 :  87 r1 :  28 r2 :   0 r3 :   0 r4 :   4 r5 :   8 r6 :   0 r7 :   0 
r8 :   2 r9 :   4 r10:   0 r11:   0 r12:   0 r13:   0 r14:   0 r15:   6 
r16: 134 r17: 223 r18: 114 r19:  61 r20:  31 r21:  41 r22: 182 r23: 149 
r24: 158 r25: 109 r26: 941 r27: 461 r28:  96 r29:   1 r30:1618 r31: 544 
x  : 162 y  :1502 z  : 163 
Registers used: 26 out of 35 (74.3%)

ATmega128 instruction use summary:
.lds  :   0 .lds.l:   0 .sts  :   0 .sts.l:   0 adc   :  44 add   :  45 
adiw  : 258 and   :   2 andi  :  92 asr   :   1 bclr  :   0 bld   :   1 
brbc  :   0 brbs  :   0 brcc  :   3 brcs  :   0 break :   0 breq  : 178 
brge  :   1 brhc  :   0 brhs  :   0 brid  :   0 brie  :   0 brlo  :  38 
brlt  :   2 brmi  :   0 brne  : 191 brpl  :   2 brsh  :  26 brtc  :   1 
brts  :   0 brvc  :   0 brvs  :   0 bset  :   0 bst   :   1 call  : 799 
cbi   :  10 cbr   :   0 clc   :   0 clh   :   0 cli   :   1 cln   :   0 
clr   :  78 cls   :   0 clt   :   1 clv   :   0 clz   :   0 com   :   7 
cp    :  23 cpc   :  49 cpi   : 237 cpse  :   0 dec   :   9 des   :   0 
elpm  :   0 eor   :   2 fmul  :   0 fmuls :   0 fmulsu:   0 icall :   4 
ijmp  :   0 in    :  17 inc   :   4 jmp   :  50 ld    : 133 ldd   :1084 
ldi   : 734 lds   :  55 lpm   :  23 lsl   :  21 lsr   :  16 mov   : 145 
movw  : 178 mul   :  14 muls  :   0 mulsu :   0 neg   :   3 nop   :   0 
or    :  15 ori   :  21 out   :  60 pop   :  68 push  :  68 rcall : 127 
ret   : 209 reti  :   1 rjmp  : 350 rol   :  26 ror   :  10 sbc   :  16 
sbci  :  80 sbi   :   9 sbic  :   0 sbis  :  31 sbiw  :  61 sbr   :   2 
sbrc  :   5 sbrs  :  14 sec   :   0 seh   :   0 sei   :   1 sen   :   0 
ser   :   0 ses   :   0 set   :   1 sev   :   0 sez   :   0 sleep :   0 
spm   :   0 st    : 410 std   : 183 sts   :  29 sub   :  10 subi  :  97 
swap  :   6 tst   :   8 wdr   :   1 
Instructions used: 72 out of 117 (61.5%)

ATmega128 memory use summary [bytes]:
Segment   Begin    End      Code   Data   Used    Size   Use%
---------------------------------------------------------------
[.cseg] 0x000000 0x003d16  14858    780  15638  131072  11.9%
[.dseg] 0x000100 0x000ae7      0   1511   1511    4096  36.9%
[.eseg] 0x000000 0x000000      0      0      0    4096   0.0%

Assembly complete, 0 errors, 15 warnings
